LX51 LINKER/LOCATER V4.64.0.0                                                           09/27/2016  11:48:46  PAGE 1


LX51 LINKER/LOCATER V4.64.0.0, INVOKED BY:
C:\PROGRAM FILES (X86)\CYPRESS\PSOC CREATOR\3.3\PSOC CREATOR\IMPORT\KEIL\PK51\9.51\C51\BIN\LX51.EXE .\DP8051_Keil_951\Re
>> lease\command_processing.obj, .\DP8051_Keil_951\Release\globals.obj, .\DP8051_Keil_951\Release\interruptions.obj, .\D
>> P8051_Keil_951\Release\main.obj, .\DP8051_Keil_951\Release\utils.obj, .\DP8051_Keil_951\Release\IMU_functions.obj, .\
>> DP8051_Keil_951\Release\firmware.lib, C:\Program Files (x86)\Cypress\PSoC Creator\3.3\PSoC Creator\psoc\content\cycom
>> ponentlibrary\CyComponentLibrary.cylib\DP8051\DP8051_Keil_951\Release\CyComponentLibrary.lib TO .\DP8051_Keil_951\Rel
>> ease\firmware.omf CODE RU RC (10) DW (16) WL (2) PR (.\DP8051_Keil_951\Release/firmware.map) IX CL (XDATA (X:0X0000-X
>> :0X1FFF)) CL (CODE (C:0X2600-C:0XFFBF)) CL (CONST (C:0X2600-C:0XFFBF))


CPU MODE:     8051 MODE
MEMORY MODEL: LARGE WITH FLOATING POINT ARITHMETIC


INPUT MODULES INCLUDED:
  .\DP8051_Keil_951\Release\command_processing.obj (COMMAND_PROCESSING)
         COMMENT TYPE 0: C51 V9.51
  .\DP8051_Keil_951\Release\globals.obj (GLOBALS)
         COMMENT TYPE 0: C51 V9.51
  .\DP8051_Keil_951\Release\interruptions.obj (INTERRUPTIONS)
         COMMENT TYPE 0: C51 V9.51
  .\DP8051_Keil_951\Release\main.obj (MAIN)
         COMMENT TYPE 0: C51 V9.51
  .\DP8051_Keil_951\Release\utils.obj (UTILS)
         COMMENT TYPE 0: C51 V9.51
  .\DP8051_Keil_951\Release\IMU_functions.obj (IMU_FUNCTIONS)
         COMMENT TYPE 0: C51 V9.51
  .\DP8051_Keil_951\Release\firmware.lib (UART_RS485)
         COMMENT TYPE 0: C51 V9.51
  .\DP8051_Keil_951\Release\firmware.lib (ISR_RS485_RX)
         COMMENT TYPE 0: C51 V9.51
  .\DP8051_Keil_951\Release\firmware.lib (PACER_TIMER)
         COMMENT TYPE 0: C51 V9.51
  .\DP8051_Keil_951\Release\firmware.lib (CLOCK_UART)
         COMMENT TYPE 0: C51 V9.51
  .\DP8051_Keil_951\Release\firmware.lib (EEPROM)
         COMMENT TYPE 0: C51 V9.51
  .\DP8051_Keil_951\Release\firmware.lib (RS485_CTS)
         COMMENT TYPE 0: C51 V9.51
  .\DP8051_Keil_951\Release\firmware.lib (BOOTLOADABLE)
         COMMENT TYPE 0: C51 V9.51
  .\DP8051_Keil_951\Release\firmware.lib (FTDI_ENABLE_REG)
         COMMENT TYPE 0: C51 V9.51
  .\DP8051_Keil_951\Release\firmware.lib (RESET_FF)
         COMMENT TYPE 0: C51 V9.51
  .\DP8051_Keil_951\Release\firmware.lib (FF_STATUS)
         COMMENT TYPE 0: C51 V9.51
  .\DP8051_Keil_951\Release\firmware.lib (MY_TIMER)
         COMMENT TYPE 0: C51 V9.51
  .\DP8051_Keil_951\Release\firmware.lib (CYFLASH)
         COMMENT TYPE 0: C51 V9.51
  .\DP8051_Keil_951\Release\firmware.lib (CYLIB)
         COMMENT TYPE 0: C51 V9.51
  .\DP8051_Keil_951\Release\firmware.lib (?C_STARTUP)
         COMMENT TYPE 0: AX51 V3.07d
  .\DP8051_Keil_951\Release\firmware.lib (ISR_WATCHDOG)
         COMMENT TYPE 0: C51 V9.51
  .\DP8051_Keil_951\Release\firmware.lib (WATCHDOG_COUNTER)
         COMMENT TYPE 0: C51 V9.51
  .\DP8051_Keil_951\Release\firmware.lib (WATCHDOG_ENABLER)
         COMMENT TYPE 0: C51 V9.51
  .\DP8051_Keil_951\Release\firmware.lib (WATCHDOG_REFRESH)
         COMMENT TYPE 0: C51 V9.51
  .\DP8051_Keil_951\Release\firmware.lib (SPI_IMU)
         COMMENT TYPE 0: C51 V9.51
  .\DP8051_Keil_951\Release\firmware.lib (ISR_IMU)
LX51 LINKER/LOCATER V4.64.0.0                                                         09/27/2016  11:48:46  PAGE 2


         COMMENT TYPE 0: C51 V9.51
  .\DP8051_Keil_951\Release\firmware.lib (OPTO_PIN)
         COMMENT TYPE 0: C51 V9.51
  .\DP8051_Keil_951\Release\firmware.lib (CHIP_SELECT_A)
         COMMENT TYPE 0: C51 V9.51
  .\DP8051_Keil_951\Release\firmware.lib (CHIP_SELECT_B)
         COMMENT TYPE 0: C51 V9.51
  .\DP8051_Keil_951\Release\firmware.lib (CYFITTER_CFG)
         COMMENT TYPE 0: C51 V9.51
  .\DP8051_Keil_951\Release\firmware.lib (UART_RS485_INT)
         COMMENT TYPE 0: C51 V9.51
  .\DP8051_Keil_951\Release\firmware.lib (CYBOOTASMKEIL)
         COMMENT TYPE 0: AX51 V3.07d
  .\DP8051_Keil_951\Release\firmware.lib (CYMEM)
         COMMENT TYPE 0: AX51 V3.07d
  .\DP8051_Keil_951\Release\firmware.lib (CYPM)
         COMMENT TYPE 0: C51 V9.51
  .\DP8051_Keil_951\Release\firmware.lib (CYSPC)
         COMMENT TYPE 0: C51 V9.51
  .\DP8051_Keil_951\Release\firmware.lib (SPI_IMU_INTCLOCK)
         COMMENT TYPE 0: C51 V9.51
  C:\PROGRAM FILES (X86)\CYPRESS\PSOC CREATOR\3.3\PSOC CREATOR\IMPORT\KEIL\PK51\9.51\C51\LIB\C51FPL.LIB (?C?FPADD)
         COMMENT TYPE 1: A51 / ASM51 Assembler
  C:\PROGRAM FILES (X86)\CYPRESS\PSOC CREATOR\3.3\PSOC CREATOR\IMPORT\KEIL\PK51\9.51\C51\LIB\C51FPL.LIB (?C?FPMUL)
         COMMENT TYPE 1: A51 / ASM51 Assembler
  C:\PROGRAM FILES (X86)\CYPRESS\PSOC CREATOR\3.3\PSOC CREATOR\IMPORT\KEIL\PK51\9.51\C51\LIB\C51FPL.LIB (?C?FPCMP)
         COMMENT TYPE 1: A51 / ASM51 Assembler
  C:\PROGRAM FILES (X86)\CYPRESS\PSOC CREATOR\3.3\PSOC CREATOR\IMPORT\KEIL\PK51\9.51\C51\LIB\C51FPL.LIB (?C?FCAST)
         COMMENT TYPE 1: A51 / ASM51 Assembler
  C:\PROGRAM FILES (X86)\CYPRESS\PSOC CREATOR\3.3\PSOC CREATOR\IMPORT\KEIL\PK51\9.51\C51\LIB\C51FPL.LIB (?C?CASTF)
         COMMENT TYPE 1: A51 / ASM51 Assembler
  C:\PROGRAM FILES (X86)\CYPRESS\PSOC CREATOR\3.3\PSOC CREATOR\IMPORT\KEIL\PK51\9.51\C51\LIB\C51FPL.LIB (PRINTF)
         COMMENT TYPE 1: A51 / ASM51 Assembler
  C:\PROGRAM FILES (X86)\CYPRESS\PSOC CREATOR\3.3\PSOC CREATOR\IMPORT\KEIL\PK51\9.51\C51\LIB\C51FPL.LIB (?C?FPGETOPN)
         COMMENT TYPE 1: A51 / ASM51 Assembler
  C:\PROGRAM FILES (X86)\CYPRESS\PSOC CREATOR\3.3\PSOC CREATOR\IMPORT\KEIL\PK51\9.51\C51\LIB\C51FPL.LIB (?C?FPROUND)
         COMMENT TYPE 1: A51 / ASM51 Assembler
  C:\PROGRAM FILES (X86)\CYPRESS\PSOC CREATOR\3.3\PSOC CREATOR\IMPORT\KEIL\PK51\9.51\C51\LIB\C51FPL.LIB (?C?FPCONVERT)
         COMMENT TYPE 1: A51 / ASM51 Assembler
  C:\PROGRAM FILES (X86)\CYPRESS\PSOC CREATOR\3.3\PSOC CREATOR\IMPORT\KEIL\PK51\9.51\C51\LIB\C51FPL.LIB (?C?FPDIV)
         COMMENT TYPE 1: A51 / ASM51 Assembler
  C:\PROGRAM FILES (X86)\CYPRESS\PSOC CREATOR\3.3\PSOC CREATOR\IMPORT\KEIL\PK51\9.51\C51\LIB\C51FPL.LIB (?C?FTNPWR)
         COMMENT TYPE 1: A51 / ASM51 Assembler
  C:\PROGRAM FILES (X86)\CYPRESS\PSOC CREATOR\3.3\PSOC CREATOR\IMPORT\KEIL\PK51\9.51\C51\LIB\C51L.LIB (?C_INIT)
         COMMENT TYPE 1: A51 / ASM51 Assembler
  C:\PROGRAM FILES (X86)\CYPRESS\PSOC CREATOR\3.3\PSOC CREATOR\IMPORT\KEIL\PK51\9.51\C51\LIB\C51L.LIB (?C?CLDPTR)
         COMMENT TYPE 1: A51 / ASM51 Assembler
  C:\PROGRAM FILES (X86)\CYPRESS\PSOC CREATOR\3.3\PSOC CREATOR\IMPORT\KEIL\PK51\9.51\C51\LIB\C51L.LIB (?C?CLDOPTR)
         COMMENT TYPE 1: A51 / ASM51 Assembler
  C:\PROGRAM FILES (X86)\CYPRESS\PSOC CREATOR\3.3\PSOC CREATOR\IMPORT\KEIL\PK51\9.51\C51\LIB\C51L.LIB (?C?CSTPTR)
         COMMENT TYPE 1: A51 / ASM51 Assembler
  C:\PROGRAM FILES (X86)\CYPRESS\PSOC CREATOR\3.3\PSOC CREATOR\IMPORT\KEIL\PK51\9.51\C51\LIB\C51L.LIB (?C?LMUL)
         COMMENT TYPE 1: A51 / ASM51 Assembler
  C:\PROGRAM FILES (X86)\CYPRESS\PSOC CREATOR\3.3\PSOC CREATOR\IMPORT\KEIL\PK51\9.51\C51\LIB\C51L.LIB (?C?ULDIV)
         COMMENT TYPE 1: A51 / ASM51 Assembler
  C:\PROGRAM FILES (X86)\CYPRESS\PSOC CREATOR\3.3\PSOC CREATOR\IMPORT\KEIL\PK51\9.51\C51\LIB\C51L.LIB (?C?SLDIV)
         COMMENT TYPE 1: A51 / ASM51 Assembler
  C:\PROGRAM FILES (X86)\CYPRESS\PSOC CREATOR\3.3\PSOC CREATOR\IMPORT\KEIL\PK51\9.51\C51\LIB\C51L.LIB (?C?LNEG)
         COMMENT TYPE 1: A51 / ASM51 Assembler
  C:\PROGRAM FILES (X86)\CYPRESS\PSOC CREATOR\3.3\PSOC CREATOR\IMPORT\KEIL\PK51\9.51\C51\LIB\C51L.LIB (?C?SLCMP)
         COMMENT TYPE 1: A51 / ASM51 Assembler
  C:\PROGRAM FILES (X86)\CYPRESS\PSOC CREATOR\3.3\PSOC CREATOR\IMPORT\KEIL\PK51\9.51\C51\LIB\C51L.LIB (?C?ULCMP)
         COMMENT TYPE 1: A51 / ASM51 Assembler
  C:\PROGRAM FILES (X86)\CYPRESS\PSOC CREATOR\3.3\PSOC CREATOR\IMPORT\KEIL\PK51\9.51\C51\LIB\C51L.LIB (?C?ULSHR)
         COMMENT TYPE 1: A51 / ASM51 Assembler
LX51 LINKER/LOCATER V4.64.0.0                                                         09/27/2016  11:48:46  PAGE 3


  C:\PROGRAM FILES (X86)\CYPRESS\PSOC CREATOR\3.3\PSOC CREATOR\IMPORT\KEIL\PK51\9.51\C51\LIB\C51L.LIB (?C?SLSHR)
         COMMENT TYPE 1: A51 / ASM51 Assembler
  C:\PROGRAM FILES (X86)\CYPRESS\PSOC CREATOR\3.3\PSOC CREATOR\IMPORT\KEIL\PK51\9.51\C51\LIB\C51L.LIB (?C?LSHL)
         COMMENT TYPE 1: A51 / ASM51 Assembler
  C:\PROGRAM FILES (X86)\CYPRESS\PSOC CREATOR\3.3\PSOC CREATOR\IMPORT\KEIL\PK51\9.51\C51\LIB\C51L.LIB (?C?LLDPTR)
         COMMENT TYPE 1: A51 / ASM51 Assembler
  C:\PROGRAM FILES (X86)\CYPRESS\PSOC CREATOR\3.3\PSOC CREATOR\IMPORT\KEIL\PK51\9.51\C51\LIB\C51L.LIB (?C?LSTPTR)
         COMMENT TYPE 1: A51 / ASM51 Assembler
  C:\PROGRAM FILES (X86)\CYPRESS\PSOC CREATOR\3.3\PSOC CREATOR\IMPORT\KEIL\PK51\9.51\C51\LIB\C51L.LIB (?C?LSTXDATA)
         COMMENT TYPE 1: A51 / ASM51 Assembler
  C:\PROGRAM FILES (X86)\CYPRESS\PSOC CREATOR\3.3\PSOC CREATOR\IMPORT\KEIL\PK51\9.51\C51\LIB\C51L.LIB (?C?OFFXADD)
         COMMENT TYPE 1: A51 / ASM51 Assembler
  C:\PROGRAM FILES (X86)\CYPRESS\PSOC CREATOR\3.3\PSOC CREATOR\IMPORT\KEIL\PK51\9.51\C51\LIB\C51L.LIB (?C?PLDIXDATA)
         COMMENT TYPE 1: A51 / ASM51 Assembler
  C:\PROGRAM FILES (X86)\CYPRESS\PSOC CREATOR\3.3\PSOC CREATOR\IMPORT\KEIL\PK51\9.51\C51\LIB\C51L.LIB (?C?PSTXDATA)
         COMMENT TYPE 1: A51 / ASM51 Assembler
  C:\PROGRAM FILES (X86)\CYPRESS\PSOC CREATOR\3.3\PSOC CREATOR\IMPORT\KEIL\PK51\9.51\C51\LIB\C51L.LIB (?C?CCASE)
         COMMENT TYPE 1: A51 / ASM51 Assembler
  C:\PROGRAM FILES (X86)\CYPRESS\PSOC CREATOR\3.3\PSOC CREATOR\IMPORT\KEIL\PK51\9.51\C51\LIB\C51L.LIB (?C_XBP)
         COMMENT TYPE 1: A51 / ASM51 Assembler
  C:\PROGRAM FILES (X86)\CYPRESS\PSOC CREATOR\3.3\PSOC CREATOR\IMPORT\KEIL\PK51\9.51\C51\LIB\C51L.LIB (?C?ADDXBP)
         COMMENT TYPE 1: A51 / ASM51 Assembler
  C:\PROGRAM FILES (X86)\CYPRESS\PSOC CREATOR\3.3\PSOC CREATOR\IMPORT\KEIL\PK51\9.51\C51\LIB\C51L.LIB (?C?LIMUL)
         COMMENT TYPE 1: A51 / ASM51 Assembler
  C:\PROGRAM FILES (X86)\CYPRESS\PSOC CREATOR\3.3\PSOC CREATOR\IMPORT\KEIL\PK51\9.51\C51\LIB\C51L.LIB (PUTCHAR)
         COMMENT TYPE 1: A51 / ASM51 Assembler
  C:\PROGRAM FILES (X86)\CYPRESS\PSOC CREATOR\3.3\PSOC CREATOR\IMPORT\KEIL\PK51\9.51\C51\LIB\C51L.LIB (STRCAT)
         COMMENT TYPE 1: C51 Compiler
  C:\PROGRAM FILES (X86)\CYPRESS\PSOC CREATOR\3.3\PSOC CREATOR\IMPORT\KEIL\PK51\9.51\C51\LIB\C51L.LIB (STRLEN)
         COMMENT TYPE 1: A51 / ASM51 Assembler
  C:\PROGRAM FILES (X86)\CYPRESS\PSOC CREATOR\3.3\PSOC CREATOR\IMPORT\KEIL\PK51\9.51\C51\LIB\C51L.LIB (?C?MEMSET)
         COMMENT TYPE 1: A51 / ASM51 Assembler
  C:\PROGRAM FILES (X86)\CYPRESS\PSOC CREATOR\3.3\PSOC CREATOR\IMPORT\KEIL\PK51\9.51\C51\LIB\C51L.LIB (?C?COPYAMD)
         COMMENT TYPE 1: A51 / ASM51 Assembler
  C:\PROGRAM FILES (X86)\CYPRESS\PSOC CREATOR\3.3\PSOC CREATOR\IMPORT\KEIL\PK51\9.51\C51\LIB\C51L.LIB (?C?STRCPYAMD)
         COMMENT TYPE 1: A51 / ASM51 Assembler
  C:\PROGRAM FILES (X86)\CYPRESS\PSOC CREATOR\3.3\PSOC CREATOR\IMPORT\KEIL\PK51\9.51\C51\LIB\C51L.LIB (?C?IILDX)
         COMMENT TYPE 1: A51 / ASM51 Assembler
  C:\PROGRAM FILES (X86)\CYPRESS\PSOC CREATOR\3.3\PSOC CREATOR\IMPORT\KEIL\PK51\9.51\C51\LIB\C51L.LIB (?C?ILDIX)
         COMMENT TYPE 1: A51 / ASM51 Assembler
  C:\PROGRAM FILES (X86)\CYPRESS\PSOC CREATOR\3.3\PSOC CREATOR\IMPORT\KEIL\PK51\9.51\C51\LIB\C51L.LIB (?C?LLDIDATA)
         COMMENT TYPE 1: A51 / ASM51 Assembler
  C:\PROGRAM FILES (X86)\CYPRESS\PSOC CREATOR\3.3\PSOC CREATOR\IMPORT\KEIL\PK51\9.51\C51\LIB\C51L.LIB (?C?LLDXDATA)
         COMMENT TYPE 1: A51 / ASM51 Assembler
  C:\PROGRAM FILES (X86)\CYPRESS\PSOC CREATOR\3.3\PSOC CREATOR\IMPORT\KEIL\PK51\9.51\C51\LIB\C51L.LIB (?C?LLDPDATA)
         COMMENT TYPE 1: A51 / ASM51 Assembler
  C:\PROGRAM FILES (X86)\CYPRESS\PSOC CREATOR\3.3\PSOC CREATOR\IMPORT\KEIL\PK51\9.51\C51\LIB\C51L.LIB (?C?LLDCODE)
         COMMENT TYPE 1: A51 / ASM51 Assembler
  C:\PROGRAM FILES (X86)\CYPRESS\PSOC CREATOR\3.3\PSOC CREATOR\IMPORT\KEIL\PK51\9.51\C51\LIB\C51L.LIB (?C?LSTIDATA)
         COMMENT TYPE 1: A51 / ASM51 Assembler
  C:\PROGRAM FILES (X86)\CYPRESS\PSOC CREATOR\3.3\PSOC CREATOR\IMPORT\KEIL\PK51\9.51\C51\LIB\C51L.LIB (?C?LSTPDATA)
         COMMENT TYPE 1: A51 / ASM51 Assembler


ACTIVE MEMORY CLASSES OF MODULE:  .\DP8051_Keil_951\Release\firmware.omf (COMMAND_PROCESSING)

BASE        START       END         USED      MEMORY CLASS
==========================================================
X:000000H   X:000000H   X:001FFFH   00110DH   XDATA
C:000000H   C:002600H   C:00FFBFH   005383H   CODE
C:000000H   C:002600H   C:00FFBFH   0002DFH   CONST
I:000000H   I:000000H   I:00007FH   000023H   DATA
I:000020H.0 I:000020H.0 I:00002FH.7 000001H.6 BIT
I:000000H   I:000000H   I:0000FFH   000001H   IDATA

LX51 LINKER/LOCATER V4.64.0.0                                                         09/27/2016  11:48:46  PAGE 4



MEMORY MAP OF MODULE:  .\DP8051_Keil_951\Release\firmware.omf (COMMAND_PROCESSING)


START     STOP      LENGTH    ALIGN  RELOC    MEMORY CLASS   SEGMENT NAME
=========================================================================

* * * * * * * * * * *   D A T A   M E M O R Y   * * * * * * * * * * * * *
000000H   000007H   000008H   ---    AT..     DATA           "REG BANK 0"
000008H   00001AH   000013H   BYTE   UNIT     DATA           _DATA_GROUP_
00001BH   00001CH   000002H   BYTE   UNIT     DATA           ?C?LIB_DATA
00001DH.0 00001FH.7 000003H.0 ---    ---      **GAP**
000020H.0 000021H.1 000001H.2 BIT    UNIT     BIT            _BIT_GROUP_
000021H.2 000021H.5 000000H.4 BIT    UNIT     BIT            ?BI?GLOBALS
000021H.6 000021H   000000H.2 ---    ---      **GAP**
000022H   000027H   000006H   BYTE   UNIT     DATA           ?DT?INTERRUPTIONS
000028H   000028H   000001H   BYTE   UNIT     IDATA          ?STACK

* * * * * * * * * * *   C O D E   M E M O R Y   * * * * * * * * * * * * *
002600H   002619H   00001AH   ---    OFFS..   CODE           ?CO?KEILSTART?3
00261AH   0030C9H   000AB0H   BYTE   UNIT     CODE           ?C?LIB_CODE
0030CAH   00397DH   0008B4H   BYTE   UNIT     CODE           ?PR?_INFOPREPARE?COMMAND_PROCESSING
00397EH   0040CDH   000750H   BYTE   UNIT     CODE           ?CO?COMMAND_PROCESSING
0040CEH   00472FH   000662H   BYTE   UNIT     CODE           ?PR?ISR_IMU_INTERRUPT?ISR_IMU
004730H   004D60H   000631H   BYTE   UNIT     CODE           ?PR?_GET_PARAM_LIST?COMMAND_PROCESSING
004D61H   0051E3H   000483H   BYTE   UNIT     CODE           ?PR?PRINTF?PRINTF
0051E4H   00558EH   0003ABH   BYTE   UNIT     CODE           ?PR?INITIMUGENERAL?IMU_FUNCTIONS
00558FH   0056E4H   000156H   BYTE   UNIT     CODE           ?PR?CMD_GET_IMUS_SFS?COMMAND_PROCESSING
0056E5H   00582CH   000148H   BYTE   UNIT     CODE           ?PR?CLOCKSETUP?CYFITTER_CFG
00582DH   005970H   000144H   BYTE   UNIT     CODE           ?PR?COMMPROCESS?COMMAND_PROCESSING
005971H   005AA0H   000130H   BYTE   UNIT     CODE           ?PR?_CLOCK_UART_SETDIVIDERREGISTER?CLOCK_UART
005AA1H   005BC7H   000127H   BYTE   UNIT     CODE           ?PR?INTERRUPT_MANAGER?INTERRUPTIONS
005BC8H   005CE1H   00011AH   BYTE   UNIT     CODE           ?C_C51STARTUP
005CE2H   005DECH   00010BH   BYTE   UNIT     CODE           ?PR?CYFITTER_CFG?CYFITTER_CFG
005DEDH   005EF0H   000104H   BYTE   UNIT     CODE           ?PR?CMD_SET_IMU_MODE?COMMAND_PROCESSING
005EF1H   005FEBH   0000FBH   BYTE   UNIT     CODE           ?PR?INITIMU?IMU_FUNCTIONS
005FECH   0060E6H   0000FBH   BYTE   UNIT     CODE           ?PR?INITIMUMAGCAL?IMU_FUNCTIONS
0060E7H   0061E1H   0000FBH   BYTE   UNIT     CODE           ?PR?_READACC?IMU_FUNCTIONS
0061E2H   0062DCH   0000FBH   BYTE   UNIT     CODE           ?PR?_READGYRO?IMU_FUNCTIONS
0062DDH   0063D2H   0000F6H   BYTE   UNIT     CODE           ?PR?_READMAG?IMU_FUNCTIONS
0063D3H   0064C4H   0000F2H   BYTE   UNIT     CODE           ?PR?CMD_GET_MAG_PARAM?COMMAND_PROCESSING
0064C5H   0065A3H   0000DFH   BYTE   UNIT     CODE           ?PR?_EEPROM_WRITE?EEPROM
0065A4H   00666EH   0000CBH   BYTE   UNIT     CODE           ?PR?MAIN?MAIN
00666FH   006738H   0000CAH   BYTE   UNIT     CODE           ?PR?CMD_GET_IMUS_MODE?COMMAND_PROCESSING
006739H   0067F8H   0000C0H   BYTE   UNIT     CODE           ?PR?CFG_DMA_INIT?CYFITTER_CFG
0067F9H   0068A9H   0000B1H   BYTE   UNIT     CODE           ?PR?UART_RS485_RXISR?UART_RS485_INT
0068AAH   006956H   0000ADH   BYTE   UNIT     CODE           ?PR?_MEMSTORE?COMMAND_PROCESSING
006957H   0069E3H   00008DH   BYTE   UNIT     CODE           ?PR?_COMMWRITE?COMMAND_PROCESSING
0069E4H   006A6BH   000088H   BYTE   UNIT     CODE           ?PR?_?CYDELAY?CYLIB
006A6CH   006AEFH   000084H   BYTE   UNIT     CODE           ?PR?_READMAGCAL?IMU_FUNCTIONS
006AF0H   006B62H   000073H   BYTE   UNIT     CODE           ?PR?_CYSPCLOADROW?CYSPC
006B63H   006BCDH   00006BH   BYTE   UNIT     CODE           ?PR?_STRCAT?STRCAT
006BCEH   006C36H   000069H   BYTE   UNIT     CODE           ?PR?_READIMU?IMU_FUNCTIONS
006C37H   006C96H   000060H   BYTE   UNIT     CODE           ?PR?_CYSPCREADDATA?CYSPC
006C97H   006CF1H   00005BH   BYTE   UNIT     CODE           ?PR?UART_RS485_GETCHAR?UART_RS485
006CF2H   006D4AH   000059H   BYTE   UNIT     CODE           ?C_INITSEG
006D4BH   006DA0H   000056H   BYTE   UNIT     CODE           ?PR?CYSETTEMPINT?CYFLASH
006DA1H   006DF4H   000054H   BYTE   UNIT     CODE           ?PR?_CYINTSETVECTOR?CYLIB
006DF5H   006E48H   000054H   BYTE   UNIT     CODE           ?PR?_CYSPCWRITEROW?CYSPC
006E49H   006E98H   000050H   BYTE   UNIT     CODE           ?PR?CYFLASHGETSPCALGORITHM?CYFLASH
006E99H   006EE7H   00004FH   BYTE   UNIT     CODE           ?PR?UART_RS485_GETRXBUFFERSIZE?UART_RS485
006EE8H   006F34H   00004DH   BYTE   UNIT     CODE           ?PR?MEMRECALL?COMMAND_PROCESSING
006F35H   006F7DH   000049H   BYTE   UNIT     CODE           ?PR?_CHIPSELECTOR?IMU_FUNCTIONS
006F7EH   006FC4H   000047H   BYTE   UNIT     CODE           ?PR?MEMRESTORE?COMMAND_PROCESSING
006FC5H   007008H   000044H   BYTE   UNIT     CODE           ?C?LDIV
LX51 LINKER/LOCATER V4.64.0.0                                                         09/27/2016  11:48:46  PAGE 5


007009H   007049H   000041H   BYTE   UNIT     CODE           ?PR?CMD_SET_WATCHDOG?COMMAND_PROCESSING
00704AH   00708AH   000041H   BYTE   UNIT     CODE           ?PR?FUNCTION_SCHEDULER?INTERRUPTIONS
00708BH   0070C6H   00003CH   BYTE   UNIT     CODE           ?PR?PACER_TIMER_INIT?PACER_TIMER
0070C7H   0070FEH   000038H   BYTE   UNIT     CODE           ?PR?WATCHDOG_COUNTER_INIT?WATCHDOG_COUNTER
0070FFH   0070FFH   000001H   BYTE   UNIT     CODE           ?PR?SETZEROS?COMMAND_PROCESSING
007100H   00713AH   00003BH   PAGE   UNIT     CODE           ?PR?CYDELAYCYCLES?CYBOOTASMKEIL
00713BH   00716FH   000035H   BYTE   UNIT     CODE           ?PR?IMUSRESET?IMU_FUNCTIONS
007170H   0071A3H   000034H   BYTE   UNIT     CODE           ?PR?_UART_RS485_PUTSTRING?UART_RS485
0071A4H   0071D7H   000034H   BYTE   UNIT     CODE           ?PR?_CYCONFIGCPY?CYMEM
0071D8H   00720AH   000033H   BYTE   UNIT     CODE           ?PR?UART_RS485_INIT?UART_RS485
00720BH   00723CH   000032H   BYTE   UNIT     CODE           ?PR?_LCRCHECKSUM?COMMAND_PROCESSING
00723DH   00726DH   000031H   BYTE   UNIT     CODE           ?PR?CYEEPROM_START?CYFLASH
00726EH   00729DH   000030H   BYTE   UNIT     CODE           ?PR?_WRITECONTROLREGISTER?IMU_FUNCTIONS
00729EH   0072CCH   00002FH   BYTE   UNIT     CODE           ?PR?UART_RS485_CLEARRXBUFFER?UART_RS485
0072CDH   0072FAH   00002EH   BYTE   UNIT     CODE           ?PR?MEMINIT?COMMAND_PROCESSING
0072FBH   007328H   00002EH   BYTE   UNIT     CODE           ?PR?_CYSPCGETTEMP?CYSPC
007329H   00732BH   000003H   BYTE   UNIT     CODE           ?PR?ISR_WATCHDOG_HANDLER?INTERRUPTIONS
00732CH   007358H   00002DH   DWORD  UNIT     CODE           ?PR?CYDELAYUS?CYBOOTASMKEIL
007359H   007384H   00002CH   BYTE   UNIT     CODE           ?PR?MY_TIMER_INIT?MY_TIMER
007385H   0073AFH   00002BH   BYTE   UNIT     CODE           ?PR?CMD_GET_N_IMU?COMMAND_PROCESSING
0073B0H   0073D6H   000027H   BYTE   UNIT     CODE           ?PR?PUTCHAR?PUTCHAR
0073D7H   0073FCH   000026H   BYTE   UNIT     CODE           ?PR?CYCONFIGCPYCODE?CYMEM
0073FDH   007421H   000025H   BYTE   UNIT     CODE           ?PR?SPI_IMU_ENABLE?SPI_IMU
007422H   007443H   000022H   BYTE   UNIT     CODE           ?PR?UART_RS485_ENABLE?UART_RS485
007444H   007465H   000022H   BYTE   UNIT     CODE           ?PR?UART_RS485_STOP?UART_RS485
007466H   007485H   000020H   BYTE   UNIT     CODE           ?PR?CMD_SET_BAUDRATE?COMMAND_PROCESSING
007486H   0074A5H   000020H   BYTE   UNIT     CODE           ?PR?SPI_IMU_CLEARFIFO?SPI_IMU
0074A6H   0074C4H   00001FH   BYTE   UNIT     CODE           ?PR?_ISR_RS485_RX_STARTEX?ISR_RS485_RX
0074C5H   0074E3H   00001FH   BYTE   UNIT     CODE           ?PR?_ISR_WATCHDOG_STARTEX?ISR_WATCHDOG
0074E4H   007502H   00001FH   BYTE   UNIT     CODE           ?PR?CYSPCLOCK?CYSPC
007503H   00751FH   00001DH   BYTE   UNIT     CODE           ?PR?ANALOGSETDEFAULT?CYFITTER_CFG
007520H   00753BH   00001CH   BYTE   UNIT     CODE           ?PR?_WATCHDOG_COUNTER_WRITECOUNTER?WATCHDOG_COUNTER
00753CH   007556H   00001BH   BYTE   UNIT     CODE           ?PR?CYSPCGETALGORITHM?CYSPC
007557H   00756FH   000019H   BYTE   UNIT     CODE           ?PR?_INFOGET?COMMAND_PROCESSING
007570H   007588H   000019H   BYTE   UNIT     CODE           ?PR?_CYINTSETPRIORITY?CYLIB
007589H   0075A1H   000019H   BYTE   UNIT     CODE           ?PR?SPI_IMU_INIT?SPI_IMU
0075A2H   0075B9H   000018H   BYTE   UNIT     CODE           ?PR?CYSETTEMP?CYFLASH
0075BAH   0075D1H   000018H   BYTE   UNIT     CODE           ?PR?CYEXITCRITICALSECTION?CYBOOTASMKEIL
0075D2H   0075E8H   000017H   BYTE   UNIT     CODE           ?PR?_READCONTROLREGISTER?IMU_FUNCTIONS
0075E9H   0075FEH   000016H   BYTE   UNIT     CODE           ?PR?PACER_TIMER_ENABLE?PACER_TIMER
0075FFH   007614H   000016H   BYTE   UNIT     CODE           ?PR?WATCHDOG_COUNTER_ENABLE?WATCHDOG_COUNTER
007615H   007629H   000015H   BYTE   UNIT     CODE           ?PR?_SENDACKNOWLEDGMENT?COMMAND_PROCESSING
00762AH   00763EH   000015H   BYTE   UNIT     CODE           ?PR?CMD_STORE_PARAMS?COMMAND_PROCESSING
00763FH   007653H   000015H   BYTE   UNIT     CODE           ?PR?CYENTERCRITICALSECTION?CYBOOTASMKEIL
007654H   007668H   000015H   BYTE   UNIT     CODE           ?PR?CYSPCSTART?CYSPC
007669H   00767DH   000015H   BYTE   UNIT     CODE           ?PR?_STRLEN?STRLEN
00767EH   007691H   000014H   BYTE   UNIT     CODE           ?PR?CMD_PING?COMMAND_PROCESSING
007692H   0076A5H   000014H   BYTE   UNIT     CODE           ?PR?UART_RS485_READRXSTATUS?UART_RS485
0076A6H   0076B8H   000013H   BYTE   UNIT     CODE           ?PR?UART_RS485_START?UART_RS485
0076B9H   0076CBH   000013H   BYTE   UNIT     CODE           ?PR?PACER_TIMER_START?PACER_TIMER
0076CCH   0076DEH   000013H   BYTE   UNIT     CODE           ?PR?MY_TIMER_START?MY_TIMER
0076DFH   0076F1H   000013H   BYTE   UNIT     CODE           ?PR?WATCHDOG_COUNTER_START?WATCHDOG_COUNTER
0076F2H   007704H   000013H   BYTE   UNIT     CODE           ?PR?SPI_IMU_START?SPI_IMU
007705H   007717H   000013H   BYTE   UNIT     CODE           ?PR?ISR_IMU_START?ISR_IMU
007718H   00772AH   000013H   BYTE   UNIT     CODE           ?PR?CYREAD24?CYMEM
00772BH   00773CH   000012H   BYTE   UNIT     CODE           ?PR?UART_RS485_CLEARTXBUFFER?UART_RS485
00773DH   00774EH   000012H   BYTE   UNIT     CODE           ?PR?SPI_IMU_CLEARTXBUFFER?SPI_IMU
00774FH   007760H   000012H   BYTE   UNIT     CODE           ?PR?CYWRITE24?CYMEM
007761H   007770H   000010H   BYTE   UNIT     CODE           ?PR?_OPTO_PIN_WRITE?OPTO_PIN
007771H   00777FH   00000FH   BYTE   UNIT     CODE           ?PR?MY_TIMER_READCOUNTER?MY_TIMER
007780H   00778EH   00000FH   BYTE   UNIT     CODE           ?PR?SPI_IMU_CLEARRXBUFFER?SPI_IMU
00778FH   00779DH   00000FH   BYTE   UNIT     CODE           ?PR?SPI_IMU_READSTATUS?SPI_IMU
00779EH   0077ACH   00000FH   BYTE   UNIT     CODE           ?PR?CYREAD16?CYMEM
0077ADH   0077BBH   00000FH   BYTE   UNIT     CODE           ?PR?CYWRITE16?CYMEM
0077BCH   0077CAH   00000FH   BYTE   UNIT     CODE           ?PR?SPI_IMU_INTCLOCK_START?SPI_IMU_INTCLOCK
LX51 LINKER/LOCATER V4.64.0.0                                                         09/27/2016  11:48:46  PAGE 6


0077CBH   0077D8H   00000EH   BYTE   UNIT     CODE           ?PR?_ISR_RS485_RX_SETVECTOR?ISR_RS485_RX
0077D9H   0077E6H   00000EH   BYTE   UNIT     CODE           ?PR?_PACER_TIMER_WRITEPERIOD?PACER_TIMER
0077E7H   0077F4H   00000EH   BYTE   UNIT     CODE           ?PR?_PACER_TIMER_WRITECOUNTER?PACER_TIMER
0077F5H   007802H   00000EH   BYTE   UNIT     CODE           ?PR?_ISR_WATCHDOG_SETVECTOR?ISR_WATCHDOG
007803H   007810H   00000EH   BYTE   UNIT     CODE           ?PR?_WATCHDOG_COUNTER_WRITEPERIOD?WATCHDOG_COUNTER
007811H   00781EH   00000EH   BYTE   UNIT     CODE           ?PR?_ISR_IMU_SETVECTOR?ISR_IMU
00781FH   00782BH   00000DH   BYTE   UNIT     CODE           ?PR?_UART_RS485_PUTCHAR?UART_RS485
00782CH   007838H   00000DH   BYTE   UNIT     CODE           ?PR?MY_TIMER_CLEARFIFO?MY_TIMER
007839H   007845H   00000DH   BYTE   UNIT     CODE           ?PR?_SPI_IMU_WRITETXDATA?SPI_IMU
007846H   007851H   00000CH   BYTE   UNIT     CODE           ?PR?CYREAD8?CYMEM
007852H   00785DH   00000CH   BYTE   UNIT     CODE           ?PR?CYWRITE8?CYMEM
00785EH   007869H   00000CH   BYTE   UNIT     CODE           ?PR?CYSPCUNLOCK?CYSPC
00786AH   007873H   00000AH   BYTE   UNIT     CODE           ?PR?_ISR_RS485_RX_SETPRIORITY?ISR_RS485_RX
007874H   00787DH   00000AH   BYTE   UNIT     CODE           ?PR?CLOCK_UART_GETDIVIDERREGISTER?CLOCK_UART
00787EH   007887H   00000AH   BYTE   UNIT     CODE           ?PR?BOOTLOADABLE_LOAD?BOOTLOADABLE
007888H   007891H   00000AH   BYTE   UNIT     CODE           ?PR?_MY_TIMER_WRITEPERIOD?MY_TIMER
007892H   00789BH   00000AH   BYTE   UNIT     CODE           ?PR?MY_TIMER_READCAPTURE?MY_TIMER
00789CH   0078A5H   00000AH   BYTE   UNIT     CODE           ?PR?_MY_TIMER_WRITECOUNTER?MY_TIMER
0078A6H   0078AFH   00000AH   BYTE   UNIT     CODE           ?PR?_ISR_WATCHDOG_SETPRIORITY?ISR_WATCHDOG
0078B0H   0078B9H   00000AH   BYTE   UNIT     CODE           ?PR?_ISR_IMU_SETPRIORITY?ISR_IMU
0078BAH   0078C1H   000008H   BYTE   UNIT     CODE           ?PR?CLOCK_UART_GETSOURCEREGISTER?CLOCK_UART
0078C2H   0078C9H   000008H   BYTE   UNIT     CODE           ?PR?MY_TIMER_ENABLE?MY_TIMER
0078CAH   0078D1H   000008H   BYTE   UNIT     CODE           ?PR?CYSOFTWARERESET?CYLIB
0078D2H   0078D8H   000007H   BYTE   UNIT     CODE           ?PR?CMD_GET_IMU_READINGS?COMMAND_PROCESSING
0078D9H   0078DFH   000007H   BYTE   UNIT     CODE           ?PR?ISR_RS485_RX_ENABLE?ISR_RS485_RX
0078E0H   0078E6H   000007H   BYTE   UNIT     CODE           ?PR?ISR_RS485_RX_DISABLE?ISR_RS485_RX
0078E7H   0078EDH   000007H   BYTE   UNIT     CODE           ?PR?EEPROM_ENABLE?EEPROM
0078EEH   0078F4H   000007H   BYTE   UNIT     CODE           ?PR?ISR_WATCHDOG_ENABLE?ISR_WATCHDOG
0078F5H   0078FBH   000007H   BYTE   UNIT     CODE           ?PR?ISR_WATCHDOG_DISABLE?ISR_WATCHDOG
0078FCH   007902H   000007H   BYTE   UNIT     CODE           ?PR?ISR_IMU_ENABLE?ISR_IMU
007903H   007909H   000007H   BYTE   UNIT     CODE           ?PR?ISR_IMU_DISABLE?ISR_IMU
00790AH   00790FH   000006H   BYTE   UNIT     CODE           ?PR?UART_RS485_READTXSTATUS?UART_RS485
007910H   007915H   000006H   BYTE   UNIT     CODE           ?PR?_PACER_TIMER_SETINTERRUPTMODE?PACER_TIMER
007916H   00791BH   000006H   BYTE   UNIT     CODE           ?PR?_RS485_CTS_WRITE?RS485_CTS
00791CH   007921H   000006H   BYTE   UNIT     CODE           ?PR?_FTDI_ENABLE_REG_WRITE?FTDI_ENABLE_REG
007922H   007927H   000006H   BYTE   UNIT     CODE           ?PR?_RESET_FF_WRITE?RESET_FF
007928H   00792DH   000006H   BYTE   UNIT     CODE           ?PR?FF_STATUS_READ?FF_STATUS
00792EH   007933H   000006H   BYTE   UNIT     CODE           ?PR?_MY_TIMER_SETINTERRUPTMODE?MY_TIMER
007934H   007939H   000006H   BYTE   UNIT     CODE           ?PR?MY_TIMER_READSTATUSREGISTER?MY_TIMER
00793AH   00793FH   000006H   BYTE   UNIT     CODE           ?PR?_WATCHDOG_COUNTER_SETINTERRUPTMODE?WATCHDOG_COUNTER
007940H   007945H   000006H   BYTE   UNIT     CODE           ?PR?_WATCHDOG_ENABLER_WRITE?WATCHDOG_ENABLER
007946H   00794BH   000006H   BYTE   UNIT     CODE           ?PR?_WATCHDOG_REFRESH_WRITE?WATCHDOG_REFRESH
00794CH   007951H   000006H   BYTE   UNIT     CODE           ?PR?SPI_IMU_READTXSTATUS?SPI_IMU
007952H   007957H   000006H   BYTE   UNIT     CODE           ?PR?SPI_IMU_READRXSTATUS?SPI_IMU
007958H   00795DH   000006H   BYTE   UNIT     CODE           ?PR?SPI_IMU_READRXDATA?SPI_IMU
00795EH   007963H   000006H   BYTE   UNIT     CODE           ?PR?_CHIP_SELECT_A_WRITE?CHIP_SELECT_A
007964H   007969H   000006H   BYTE   UNIT     CODE           ?PR?_CHIP_SELECT_B_WRITE?CHIP_SELECT_B
00796AH   00796DH   000004H   BYTE   UNIT     CODE           ?PR?EEPROM_START?EEPROM
00796EH   007971H   000004H   BYTE   UNIT     CODE           ?PR?ISR_IMU_STOP?ISR_IMU
007972H   007974H   000003H   BYTE   UNIT     CODE           ?PR?ISR_RS485_RX_EXINTERRUPT?INTERRUPTIONS
007975H   007977H   000003H   BYTE   UNIT     CODE           ?PR?_CYCLOCKSTARTUPERROR?CYFITTER_CFG
007978H   007978H   000001H   BYTE   UNIT     CODE           ?PR?CMD_GET_MEASUREMENTS?COMMAND_PROCESSING
007979H   007979H   000001H   BYTE   UNIT     CODE           ?PR?CMD_SET_INPUTS?COMMAND_PROCESSING
00797AH   00797AH   000001H   BYTE   UNIT     CODE           ?PR?CMD_ACTIVATE?COMMAND_PROCESSING
00797BH   00797BH   000001H   BYTE   UNIT     CODE           ?PR?CMD_GET_ACTIVATE?COMMAND_PROCESSING
00797CH   00797CH   000001H   BYTE   UNIT     CODE           ?PR?CMD_GET_CURRENTS?COMMAND_PROCESSING
00797DH   00797DH   000001H   BYTE   UNIT     CODE           ?PR?CMD_GET_INPUTS?COMMAND_PROCESSING
00797EH   00797EH   000001H   BYTE   UNIT     CODE           ?PR?CMD_GET_EMG?COMMAND_PROCESSING
00797FH   00797FH   000001H   BYTE   UNIT     CODE           ?PR?ISR_RS485_RX_INTERRUPT?ISR_RS485_RX
007980H   007980H   000001H   BYTE   UNIT     CODE           ?PR?ISR_WATCHDOG_INTERRUPT?ISR_WATCHDOG
007981H   007981H   000001H   BYTE   UNIT     CODE           ?PR?SPI_IMU_ENABLETXINT?SPI_IMU
007982H   007982H   000001H   BYTE   UNIT     CODE           ?PR?SPI_IMU_ENABLERXINT?SPI_IMU
007983H   007C61H   0002DFH   BYTE   UNIT     CONST          ?CO?CYFITTER_CFG

* * * * * * * * * * *  X D A T A   M E M O R Y  * * * * * * * * * * * * *
LX51 LINKER/LOCATER V4.64.0.0                                                         09/27/2016  11:48:46  PAGE 7


000000H   00068DH   00068EH   BYTE   UNIT     XDATA          _XDATA_GROUP_
00068EH   000B93H   000506H   BYTE   UNIT     XDATA          ?XD?GLOBALS
000B94H   000FE1H   00044EH   BYTE   UNIT     XDATA          ?XD?COMMAND_PROCESSING
000FE2H   001063H   000082H   BYTE   UNIT     XDATA          ?XD?INTERRUPTIONS
001064H   0010A6H   000043H   BYTE   UNIT     XDATA          ?XD?CYPM
0010A7H   0010CDH   000027H   BYTE   UNIT     XDATA          ?XD?UART_RS485
0010CEH   0010EDH   000020H   BYTE   UNIT     XDATA          ?XD?UTILS
0010EEH   0010FCH   00000FH   BYTE   UNIT     XDATA          ?XD?CYLIB
0010FDH   001101H   000005H   BYTE   UNIT     XDATA          ?XD?CYFLASH
001102H   001105H   000004H   BYTE   UNIT     XDATA          ?XD?CYFITTER_CFG
001106H   001108H   000003H   BYTE   UNIT     XDATA          ?XD?SPI_IMU
001109H   001109H   000001H   BYTE   UNIT     XDATA          ?XD?PACER_TIMER
00110AH   00110AH   000001H   BYTE   UNIT     XDATA          ?XD?MY_TIMER
00110BH   00110BH   000001H   BYTE   UNIT     XDATA          ?XD?WATCHDOG_COUNTER
00110CH   00110CH   000001H   BYTE   UNIT     XDATA          ?XD?CYSPC

* * * * * * * * *   R E M O V E D     S E G M E N T S   * * * * * * * *
   *DEL*:           000013H   BYTE   UNIT     CODE           ?PR?INFOSEND?COMMAND_PROCESSING
   *DEL*:           00044CH   BYTE   UNIT     XDATA          ?XD?INFOSEND?COMMAND_PROCESSING
   *DEL*:           000001H   BYTE   UNIT     CODE           ?PR?CMD_GET_CURR_AND_MEAS?COMMAND_PROCESSING
   *DEL*:           000075H   BYTE   UNIT     CODE           ?PR?_FILTER_V?UTILS
   *DEL*:           000075H   BYTE   UNIT     CODE           ?PR?_FILTER_I1?UTILS
   *DEL*:           000079H   BYTE   UNIT     CODE           ?PR?_FILTER_CH1?UTILS
   *DEL*:           000079H   BYTE   UNIT     CODE           ?PR?_FILTER_CH2?UTILS
   *DEL*:           00006BH   BYTE   UNIT     CODE           ?PR?_CHECK_ENC_DATA?UTILS
   *DEL*:           000054H   BYTE   UNIT     CODE           ?PR?_MY_ROUND?UTILS
   *DEL*:           000004H   BYTE   UNIT     XDATA          ?XD?_MY_ROUND?UTILS
   *DEL*:           000081H   BYTE   UNIT     CODE           ?PR?_MY_MOD?UTILS
   *DEL*:           000008H   BYTE   UNIT     XDATA          ?XD?_MY_MOD?UTILS
   *DEL*:           000001H   BYTE   UNIT     CODE           ?PR?CALIBRATION?UTILS
   *DEL*:           0000DBH   BYTE   UNIT     CODE           ?PR?_CALC_TURNS_FCN?UTILS
   *DEL*:           000008H   BYTE   UNIT     XDATA          ?XD?_CALC_TURNS_FCN?UTILS
   *DEL*:           000003H   BYTE   UNIT     IDATA          ?ID?_CHECK_ENC_DATA?UTILS
   *DEL*:           000001H   BYTE   UNIT     DATA           ?DT?_CHECK_ENC_DATA?UTILS
   *DEL*:           000003H   BYTE   UNIT     CODE           ?PR?UART_RS485_READCONTROLREGISTER?UART_RS485
   *DEL*:           000006H   BYTE   UNIT     CODE           ?PR?_UART_RS485_WRITECONTROLREGISTER?UART_RS485
   *DEL*:           000001H   BYTE   UNIT     XDATA          ?XD?_UART_RS485_WRITECONTROLREGISTER?UART_RS485
   *DEL*:           000006H   BYTE   UNIT     CODE           ?PR?_UART_RS485_SETRXINTERRUPTMODE?UART_RS485
   *DEL*:           00004AH   BYTE   UNIT     CODE           ?PR?UART_RS485_READRXDATA?UART_RS485
   *DEL*:           00001FH   BYTE   UNIT     CODE           ?PR?UART_RS485_GETBYTE?UART_RS485
   *DEL*:           000006H   BYTE   UNIT     CODE           ?PR?_UART_RS485_SETRXADDRESSMODE?UART_RS485
   *DEL*:           000001H   BYTE   UNIT     XDATA          ?XD?_UART_RS485_SETRXADDRESSMODE?UART_RS485
   *DEL*:           000006H   BYTE   UNIT     CODE           ?PR?_UART_RS485_SETRXADDRESS1?UART_RS485
   *DEL*:           000006H   BYTE   UNIT     CODE           ?PR?_UART_RS485_SETRXADDRESS2?UART_RS485
   *DEL*:           000006H   BYTE   UNIT     CODE           ?PR?_UART_RS485_SETTXINTERRUPTMODE?UART_RS485
   *DEL*:           00000CH   BYTE   UNIT     CODE           ?PR?_UART_RS485_WRITETXDATA?UART_RS485
   *DEL*:           000032H   BYTE   UNIT     CODE           ?PR?_UART_RS485_PUTARRAY?UART_RS485
   *DEL*:           000003H   BYTE   UNIT     XDATA          ?XD?_UART_RS485_PUTARRAY?UART_RS485
   *DEL*:           000014H   BYTE   UNIT     CODE           ?PR?_UART_RS485_PUTCRLF?UART_RS485
   *DEL*:           000017H   BYTE   UNIT     CODE           ?PR?UART_RS485_GETTXBUFFERSIZE?UART_RS485
   *DEL*:           000059H   BYTE   UNIT     CODE           ?PR?_UART_RS485_SENDBREAK?UART_RS485
   *DEL*:           000001H   BYTE   UNIT     XDATA          ?XD?_UART_RS485_SENDBREAK?UART_RS485
   *DEL*:           000006H   BYTE   UNIT     CODE           ?PR?_UART_RS485_SETTXADDRESSMODE?UART_RS485
   *DEL*:           000001H   BYTE   UNIT     XDATA          ?XD?_UART_RS485_SETTXADDRESSMODE?UART_RS485
   *DEL*:           000013H   BYTE   UNIT     CODE           ?PR?ISR_RS485_RX_START?ISR_RS485_RX
   *DEL*:           000004H   BYTE   UNIT     CODE           ?PR?ISR_RS485_RX_STOP?ISR_RS485_RX
   *DEL*:           00000AH   BYTE   UNIT     CODE           ?PR?ISR_RS485_RX_GETVECTOR?ISR_RS485_RX
   *DEL*:           00000BH   BYTE   UNIT     CODE           ?PR?ISR_RS485_RX_GETPRIORITY?ISR_RS485_RX
   *DEL*:           00000EH   BYTE   UNIT     CODE           ?PR?ISR_RS485_RX_GETSTATE?ISR_RS485_RX
   *DEL*:           000007H   BYTE   UNIT     CODE           ?PR?ISR_RS485_RX_SETPENDING?ISR_RS485_RX
   *DEL*:           000007H   BYTE   UNIT     CODE           ?PR?ISR_RS485_RX_CLEARPENDING?ISR_RS485_RX
   *DEL*:           000016H   BYTE   UNIT     CODE           ?PR?PACER_TIMER_STOP?PACER_TIMER
   *DEL*:           00000AH   BYTE   UNIT     CODE           ?PR?PACER_TIMER_SOFTWARECAPTURE?PACER_TIMER
   *DEL*:           000006H   BYTE   UNIT     CODE           ?PR?PACER_TIMER_READSTATUSREGISTER?PACER_TIMER
   *DEL*:           000006H   BYTE   UNIT     CODE           ?PR?PACER_TIMER_READCONTROLREGISTER?PACER_TIMER
LX51 LINKER/LOCATER V4.64.0.0                                                         09/27/2016  11:48:46  PAGE 8


   *DEL*:           000006H   BYTE   UNIT     CODE           ?PR?_PACER_TIMER_WRITECONTROLREGISTER?PACER_TIMER
   *DEL*:           00000AH   BYTE   UNIT     CODE           ?PR?PACER_TIMER_READPERIOD?PACER_TIMER
   *DEL*:           00000AH   BYTE   UNIT     CODE           ?PR?PACER_TIMER_READCAPTURE?PACER_TIMER
   *DEL*:           000013H   BYTE   UNIT     CODE           ?PR?PACER_TIMER_READCOUNTER?PACER_TIMER
   *DEL*:           00000FH   BYTE   UNIT     CODE           ?PR?CLOCK_UART_START?CLOCK_UART
   *DEL*:           00000FH   BYTE   UNIT     CODE           ?PR?CLOCK_UART_STOP?CLOCK_UART
   *DEL*:           00006DH   BYTE   UNIT     CODE           ?PR?CLOCK_UART_STOPBLOCK?CLOCK_UART
   *DEL*:           000002H   BYTE   UNIT     XDATA          ?XD?CLOCK_UART_STOPBLOCK?CLOCK_UART
   *DEL*:           000013H   BYTE   UNIT     CODE           ?PR?_CLOCK_UART_STANDBYPOWER?CLOCK_UART
   *DEL*:           00000DH   BYTE   UNIT     CODE           ?PR?_CLOCK_UART_SETMODEREGISTER?CLOCK_UART
   *DEL*:           00000EH   BYTE   UNIT     CODE           ?PR?_CLOCK_UART_CLEARMODEREGISTER?CLOCK_UART
   *DEL*:           000008H   BYTE   UNIT     CODE           ?PR?CLOCK_UART_GETMODEREGISTER?CLOCK_UART
   *DEL*:           000062H   BYTE   UNIT     CODE           ?PR?_CLOCK_UART_SETSOURCEREGISTER?CLOCK_UART
   *DEL*:           000003H   BYTE   UNIT     XDATA          ?XD?_CLOCK_UART_SETSOURCEREGISTER?CLOCK_UART
   *DEL*:           000004H   BYTE   UNIT     CODE           ?PR?EEPROM_STOP?EEPROM
   *DEL*:           000124H   BYTE   UNIT     CODE           ?PR?_EEPROM_WRITEBYTE?EEPROM
   *DEL*:           000008H   BYTE   UNIT     XDATA          ?XD?_EEPROM_WRITEBYTE?EEPROM
   *DEL*:           00003AH   BYTE   UNIT     CODE           ?PR?_EEPROM_READBYTE?EEPROM
   *DEL*:           000004H   BYTE   UNIT     XDATA          ?XD?_EEPROM_READBYTE?EEPROM
   *DEL*:           000004H   BYTE   UNIT     CODE           ?PR?EEPROM_UPDATETEMPERATURE?EEPROM
   *DEL*:           00006FH   BYTE   UNIT     CODE           ?PR?_EEPROM_ERASESECTOR?EEPROM
   *DEL*:           000002H   BYTE   UNIT     XDATA          ?XD?_EEPROM_ERASESECTOR?EEPROM
   *DEL*:           0000B9H   BYTE   UNIT     CODE           ?PR?_EEPROM_STARTWRITE?EEPROM
   *DEL*:           000005H   BYTE   UNIT     XDATA          ?XD?_EEPROM_STARTWRITE?EEPROM
   *DEL*:           000046H   BYTE   UNIT     CODE           ?PR?_EEPROM_STARTERASE?EEPROM
   *DEL*:           000002H   BYTE   UNIT     XDATA          ?XD?_EEPROM_STARTERASE?EEPROM
   *DEL*:           00003BH   BYTE   UNIT     CODE           ?PR?EEPROM_QUERY?EEPROM
   *DEL*:           000001H   BYTE   UNIT     XDATA          ?XD?EEPROM_QUERY?EEPROM
   *DEL*:           0000E5H   BYTE   UNIT     CODE           ?PR?_EEPROM_BYTEWRITEPOS?EEPROM
   *DEL*:           000004H   BYTE   UNIT     XDATA          ?XD?_EEPROM_BYTEWRITEPOS?EEPROM
   *DEL*:           000006H   BYTE   UNIT     CODE           ?PR?RS485_CTS_READ?RS485_CTS
   *DEL*:           0000FBH   BYTE   UNIT     CODE           ?PR?_BOOTLOADABLE_SETFLASHBYTE?BOOTLOADABLE
   *DEL*:           000110H   BYTE   UNIT     XDATA          ?XD?_BOOTLOADABLE_SETFLASHBYTE?BOOTLOADABLE
   *DEL*:           000006H   BYTE   UNIT     CODE           ?PR?FTDI_ENABLE_REG_READ?FTDI_ENABLE_REG
   *DEL*:           000006H   BYTE   UNIT     CODE           ?PR?RESET_FF_READ?RESET_FF
   *DEL*:           00000EH   BYTE   UNIT     CODE           ?PR?FF_STATUS_INTERRUPTENABLE?FF_STATUS
   *DEL*:           00000EH   BYTE   UNIT     CODE           ?PR?FF_STATUS_INTERRUPTDISABLE?FF_STATUS
   *DEL*:           000009H   BYTE   UNIT     CODE           ?PR?_FF_STATUS_WRITEMASK?FF_STATUS
   *DEL*:           000006H   BYTE   UNIT     CODE           ?PR?FF_STATUS_READMASK?FF_STATUS
   *DEL*:           000008H   BYTE   UNIT     CODE           ?PR?MY_TIMER_STOP?MY_TIMER
   *DEL*:           000006H   BYTE   UNIT     CODE           ?PR?MY_TIMER_SOFTWARECAPTURE?MY_TIMER
   *DEL*:           000006H   BYTE   UNIT     CODE           ?PR?MY_TIMER_READCONTROLREGISTER?MY_TIMER
   *DEL*:           000006H   BYTE   UNIT     CODE           ?PR?_MY_TIMER_WRITECONTROLREGISTER?MY_TIMER
   *DEL*:           00000AH   BYTE   UNIT     CODE           ?PR?MY_TIMER_READPERIOD?MY_TIMER
   *DEL*:           000031H   BYTE   UNIT     CODE           ?PR?CYFLASH_START?CYFLASH
   *DEL*:           000015H   BYTE   UNIT     CODE           ?PR?CYFLASH_STOP?CYFLASH
   *DEL*:           00007DH   BYTE   UNIT     CODE           ?PR?_CYSETFLASHEEBUFFER?CYFLASH
   *DEL*:           000004H   BYTE   UNIT     XDATA          ?XD?_CYSETFLASHEEBUFFER?CYFLASH
   *DEL*:           000034H   BYTE   UNIT     CODE           ?PR?_CYWRITEROWDATA?CYFLASH
   *DEL*:           000003H   BYTE   UNIT     XDATA          ?XD?_CYWRITEROWDATA?CYFLASH
   *DEL*:           000190H   BYTE   UNIT     CODE           ?PR?_CYWRITEROWFULL?CYFLASH
   *DEL*:           000009H   BYTE   UNIT     XDATA          ?XD?_CYWRITEROWFULL?CYFLASH
   *DEL*:           000044H   BYTE   UNIT     CODE           ?PR?_CYFLASH_SETWAITCYCLES?CYFLASH
   *DEL*:           000001H   BYTE   UNIT     XDATA          ?XD?_CYFLASH_SETWAITCYCLES?CYFLASH
   *DEL*:           000015H   BYTE   UNIT     CODE           ?PR?CYEEPROM_STOP?CYFLASH
   *DEL*:           000010H   BYTE   UNIT     CODE           ?PR?CYEEPROM_READRESERVE?CYFLASH
   *DEL*:           000008H   BYTE   UNIT     CODE           ?PR?CYEEPROM_READRELEASE?CYFLASH
   *DEL*:           00006EH   BYTE   UNIT     CODE           ?PR?_CYPLL_OUT_START?CYLIB
   *DEL*:           000004H   BYTE   UNIT     XDATA          ?XD?_CYPLL_OUT_START?CYLIB
   *DEL*:           000008H   BYTE   UNIT     CODE           ?PR?CYPLL_OUT_STOP?CYLIB
   *DEL*:           000036H   BYTE   UNIT     CODE           ?PR?_CYPLL_OUT_SETPQ?CYLIB
   *DEL*:           000010H   BYTE   UNIT     CODE           ?PR?_CYPLL_OUT_SETSOURCE?CYLIB
   *DEL*:           000053H   BYTE   UNIT     CODE           ?PR?_CYIMO_START?CYLIB
   *DEL*:           000003H   BYTE   UNIT     XDATA          ?XD?_CYIMO_START?CYLIB
   *DEL*:           00000FH   BYTE   UNIT     CODE           ?PR?CYIMO_STOP?CYLIB
LX51 LINKER/LOCATER V4.64.0.0                                                         09/27/2016  11:48:46  PAGE 9


   *DEL*:           000027H   BYTE   UNIT     CODE           ?PR?CYUSB_POWERONCHECK?CYLIB
   *DEL*:           0000B6H   BYTE   UNIT     CODE           ?PR?_CYIMO_SETTRIMVALUE?CYLIB
   *DEL*:           000001H   BYTE   UNIT     XDATA          ?XD?_CYIMO_SETTRIMVALUE?CYLIB
   *DEL*:           000118H   BYTE   UNIT     CODE           ?PR?_CYIMO_SETFREQ?CYLIB
   *DEL*:           000003H   BYTE   UNIT     XDATA          ?XD?_CYIMO_SETFREQ?CYLIB
   *DEL*:           00002FH   BYTE   UNIT     CODE           ?PR?_CYIMO_SETSOURCE?CYLIB
   *DEL*:           000008H   BYTE   UNIT     CODE           ?PR?CYIMO_ENABLEDOUBLER?CYLIB
   *DEL*:           000008H   BYTE   UNIT     CODE           ?PR?CYIMO_DISABLEDOUBLER?CYLIB
   *DEL*:           00000DH   BYTE   UNIT     CODE           ?PR?_CYMASTERCLK_SETSOURCE?CYLIB
   *DEL*:           000006H   BYTE   UNIT     CODE           ?PR?_CYMASTERCLK_SETDIVIDER?CYLIB
   *DEL*:           000023H   BYTE   UNIT     CODE           ?PR?_CYBUSCLK_INTERNAL_SETDIVIDER?CYLIB
   *DEL*:           00007AH   BYTE   UNIT     CODE           ?PR?_CYBUSCLK_SETDIVIDER?CYLIB
   *DEL*:           000002H   BYTE   UNIT     XDATA          ?XD?_CYBUSCLK_SETDIVIDER?CYLIB
   *DEL*:           00000EH   BYTE   UNIT     CODE           ?PR?_CYCPUCLK_SETDIVIDER?CYLIB
   *DEL*:           00000DH   BYTE   UNIT     CODE           ?PR?_CYUSBCLK_SETSOURCE?CYLIB
   *DEL*:           000008H   BYTE   UNIT     CODE           ?PR?CYILO_START1K?CYLIB
   *DEL*:           000008H   BYTE   UNIT     CODE           ?PR?CYILO_STOP1K?CYLIB
   *DEL*:           000008H   BYTE   UNIT     CODE           ?PR?CYILO_START100K?CYLIB
   *DEL*:           000008H   BYTE   UNIT     CODE           ?PR?CYILO_STOP100K?CYLIB
   *DEL*:           000008H   BYTE   UNIT     CODE           ?PR?CYILO_ENABLE33K?CYLIB
   *DEL*:           000008H   BYTE   UNIT     CODE           ?PR?CYILO_DISABLE33K?CYLIB
   *DEL*:           000011H   BYTE   UNIT     CODE           ?PR?_CYILO_SETSOURCE?CYLIB
   *DEL*:           000029H   BYTE   UNIT     CODE           ?PR?_CYILO_SETPOWERMODE?CYLIB
   *DEL*:           00005EH   BYTE   UNIT     CODE           ?PR?CYXTAL_32KHZ_START?CYLIB
   *DEL*:           000002H   BYTE   UNIT     XDATA          ?XD?CYXTAL_32KHZ_START?CYLIB
   *DEL*:           000020H   BYTE   UNIT     CODE           ?PR?CYXTAL_32KHZ_STOP?CYLIB
   *DEL*:           000008H   BYTE   UNIT     CODE           ?PR?CYXTAL_32KHZ_READSTATUS?CYLIB
   *DEL*:           000066H   BYTE   UNIT     CODE           ?PR?_CYXTAL_32KHZ_SETPOWERMODE?CYLIB
   *DEL*:           000001H   BYTE   UNIT     XDATA          ?XD?_CYXTAL_32KHZ_SETPOWERMODE?CYLIB
   *DEL*:           0000A0H   BYTE   UNIT     CODE           ?PR?_CYXTAL_START?CYLIB
   *DEL*:           000006H   BYTE   UNIT     XDATA          ?XD?_CYXTAL_START?CYLIB
   *DEL*:           000008H   BYTE   UNIT     CODE           ?PR?CYXTAL_STOP?CYLIB
   *DEL*:           000008H   BYTE   UNIT     CODE           ?PR?CYXTAL_ENABLEERRSTATUS?CYLIB
   *DEL*:           000008H   BYTE   UNIT     CODE           ?PR?CYXTAL_DISABLEERRSTATUS?CYLIB
   *DEL*:           00000FH   BYTE   UNIT     CODE           ?PR?CYXTAL_READSTATUS?CYLIB
   *DEL*:           000008H   BYTE   UNIT     CODE           ?PR?CYXTAL_ENABLEFAULTRECOVERY?CYLIB
   *DEL*:           000008H   BYTE   UNIT     CODE           ?PR?CYXTAL_DISABLEFAULTRECOVERY?CYLIB
   *DEL*:           00000DH   BYTE   UNIT     CODE           ?PR?_CYXTAL_SETSTARTUP?CYLIB
   *DEL*:           00000DH   BYTE   UNIT     CODE           ?PR?_CYXTAL_SETFBVOLTAGE?CYLIB
   *DEL*:           00000EH   BYTE   UNIT     CODE           ?PR?_CYXTAL_SETWDVOLTAGE?CYLIB
   *DEL*:           000015H   BYTE   UNIT     CODE           ?PR?_?CYHALT?CYLIB
   *DEL*:           0000B8H   BYTE   UNIT     CODE           ?PR?_?CYDELAYFREQ?CYLIB
   *DEL*:           000026H   BYTE   UNIT     CODE           ?PR?_CYWDTSTART?CYLIB
   *DEL*:           000007H   BYTE   UNIT     CODE           ?PR?CYWDTCLEAR?CYLIB
   *DEL*:           000084H   BYTE   UNIT     CODE           ?PR?_CYVDLVDIGITENABLE?CYLIB
   *DEL*:           000007H   BYTE   UNIT     XDATA          ?XD?_CYVDLVDIGITENABLE?CYLIB
   *DEL*:           000083H   BYTE   UNIT     CODE           ?PR?_CYVDLVANALOGENABLE?CYLIB
   *DEL*:           000007H   BYTE   UNIT     XDATA          ?XD?_CYVDLVANALOGENABLE?CYLIB
   *DEL*:           00001DH   BYTE   UNIT     CODE           ?PR?CYVDLVDIGITDISABLE?CYLIB
   *DEL*:           000018H   BYTE   UNIT     CODE           ?PR?CYVDLVANALOGDISABLE?CYLIB
   *DEL*:           000056H   BYTE   UNIT     CODE           ?PR?CYVDHVANALOGENABLE?CYLIB
   *DEL*:           000005H   BYTE   UNIT     XDATA          ?XD?CYVDHVANALOGENABLE?CYLIB
   *DEL*:           000011H   BYTE   UNIT     CODE           ?PR?CYVDHVANALOGDISABLE?CYLIB
   *DEL*:           000039H   BYTE   UNIT     CODE           ?PR?_CYVDSTICKYSTATUS?CYLIB
   *DEL*:           000002H   BYTE   UNIT     XDATA          ?XD?_CYVDSTICKYSTATUS?CYLIB
   *DEL*:           000018H   BYTE   UNIT     CODE           ?PR?CYVDREALTIMESTATUS?CYLIB
   *DEL*:           000001H   BYTE   UNIT     XDATA          ?XD?CYVDREALTIMESTATUS?CYLIB
   *DEL*:           0000D0H   BYTE   UNIT     CODE           ?PR?CYDISABLEINTS?CYLIB
   *DEL*:           000005H   BYTE   UNIT     XDATA          ?XD?CYDISABLEINTS?CYLIB
   *DEL*:           000067H   BYTE   UNIT     CODE           ?PR?_CYENABLEINTS?CYLIB
   *DEL*:           000004H   BYTE   UNIT     XDATA          ?XD?_CYENABLEINTS?CYLIB
   *DEL*:           000018H   BYTE   UNIT     CODE           ?PR?_CYINTGETVECTOR?CYLIB
   *DEL*:           000014H   BYTE   UNIT     CODE           ?PR?_CYINTGETPRIORITY?CYLIB
   *DEL*:           000036H   BYTE   UNIT     CODE           ?PR?_CYINTGETSTATE?CYLIB
   *DEL*:           000248H   BYTE   UNIT     CODE           ?PR?_CYGETUNIQUEID?CYLIB
LX51 LINKER/LOCATER V4.64.0.0                                                         09/27/2016  11:48:46  PAGE 10


   *DEL*:           000003H   BYTE   UNIT     XDATA          ?XD?_CYGETUNIQUEID?CYLIB
   *DEL*:           000013H   BYTE   UNIT     CODE           ?PR?ISR_WATCHDOG_START?ISR_WATCHDOG
   *DEL*:           000004H   BYTE   UNIT     CODE           ?PR?ISR_WATCHDOG_STOP?ISR_WATCHDOG
   *DEL*:           00000AH   BYTE   UNIT     CODE           ?PR?ISR_WATCHDOG_GETVECTOR?ISR_WATCHDOG
   *DEL*:           00000BH   BYTE   UNIT     CODE           ?PR?ISR_WATCHDOG_GETPRIORITY?ISR_WATCHDOG
   *DEL*:           00000EH   BYTE   UNIT     CODE           ?PR?ISR_WATCHDOG_GETSTATE?ISR_WATCHDOG
   *DEL*:           000007H   BYTE   UNIT     CODE           ?PR?ISR_WATCHDOG_SETPENDING?ISR_WATCHDOG
   *DEL*:           000007H   BYTE   UNIT     CODE           ?PR?ISR_WATCHDOG_CLEARPENDING?ISR_WATCHDOG
   *DEL*:           000016H   BYTE   UNIT     CODE           ?PR?WATCHDOG_COUNTER_STOP?WATCHDOG_COUNTER
   *DEL*:           000006H   BYTE   UNIT     CODE           ?PR?WATCHDOG_COUNTER_READSTATUSREGISTER?WATCHDOG_COUNTER
   *DEL*:           000006H   BYTE   UNIT     CODE           ?PR?WATCHDOG_COUNTER_READCONTROLREGISTER?WATCHDOG_COUNTER
   *DEL*:           000006H   BYTE   UNIT     CODE           ?PR?_WATCHDOG_COUNTER_WRITECONTROLREGISTER?WATCHDOG_COUNTE
                                                             -R
   *DEL*:           000013H   BYTE   UNIT     CODE           ?PR?WATCHDOG_COUNTER_READCOUNTER?WATCHDOG_COUNTER
   *DEL*:           00000AH   BYTE   UNIT     CODE           ?PR?WATCHDOG_COUNTER_READCAPTURE?WATCHDOG_COUNTER
   *DEL*:           00000AH   BYTE   UNIT     CODE           ?PR?WATCHDOG_COUNTER_READPERIOD?WATCHDOG_COUNTER
   *DEL*:           000006H   BYTE   UNIT     CODE           ?PR?WATCHDOG_ENABLER_READ?WATCHDOG_ENABLER
   *DEL*:           000006H   BYTE   UNIT     CODE           ?PR?WATCHDOG_REFRESH_READ?WATCHDOG_REFRESH
   *DEL*:           00001EH   BYTE   UNIT     CODE           ?PR?SPI_IMU_STOP?SPI_IMU
   *DEL*:           000001H   BYTE   UNIT     CODE           ?PR?SPI_IMU_DISABLETXINT?SPI_IMU
   *DEL*:           000001H   BYTE   UNIT     CODE           ?PR?SPI_IMU_DISABLERXINT?SPI_IMU
   *DEL*:           000006H   BYTE   UNIT     CODE           ?PR?_SPI_IMU_SETTXINTERRUPTMODE?SPI_IMU
   *DEL*:           000006H   BYTE   UNIT     CODE           ?PR?_SPI_IMU_SETRXINTERRUPTMODE?SPI_IMU
   *DEL*:           00000EH   BYTE   UNIT     CODE           ?PR?SPI_IMU_GETRXBUFFERSIZE?SPI_IMU
   *DEL*:           000017H   BYTE   UNIT     CODE           ?PR?SPI_IMU_GETTXBUFFERSIZE?SPI_IMU
   *DEL*:           00002EH   BYTE   UNIT     CODE           ?PR?_SPI_IMU_PUTARRAY?SPI_IMU
   *DEL*:           000003H   BYTE   UNIT     XDATA          ?XD?_SPI_IMU_PUTARRAY?SPI_IMU
   *DEL*:           000007H   BYTE   UNIT     CODE           ?PR?SPI_IMU_ENABLEINT?SPI_IMU
   *DEL*:           000007H   BYTE   UNIT     CODE           ?PR?SPI_IMU_DISABLEINT?SPI_IMU
   *DEL*:           00000DH   BYTE   UNIT     CODE           ?PR?_SPI_IMU_SETINTERRUPTMODE?SPI_IMU
   *DEL*:           00001FH   BYTE   UNIT     CODE           ?PR?_ISR_IMU_STARTEX?ISR_IMU
   *DEL*:           000002H   BYTE   UNIT     XDATA          ?XD?_ISR_IMU_STARTEX?ISR_IMU
   *DEL*:           00000AH   BYTE   UNIT     CODE           ?PR?ISR_IMU_GETVECTOR?ISR_IMU
   *DEL*:           00000BH   BYTE   UNIT     CODE           ?PR?ISR_IMU_GETPRIORITY?ISR_IMU
   *DEL*:           00000EH   BYTE   UNIT     CODE           ?PR?ISR_IMU_GETSTATE?ISR_IMU
   *DEL*:           000007H   BYTE   UNIT     CODE           ?PR?ISR_IMU_SETPENDING?ISR_IMU
   *DEL*:           000007H   BYTE   UNIT     CODE           ?PR?ISR_IMU_CLEARPENDING?ISR_IMU
   *DEL*:           00000DH   BYTE   UNIT     CODE           ?PR?_OPTO_PIN_SETDRIVEMODE?OPTO_PIN
   *DEL*:           000013H   BYTE   UNIT     CODE           ?PR?OPTO_PIN_READ?OPTO_PIN
   *DEL*:           000013H   BYTE   UNIT     CODE           ?PR?OPTO_PIN_READDATAREG?OPTO_PIN
   *DEL*:           000006H   BYTE   UNIT     CODE           ?PR?CHIP_SELECT_A_READ?CHIP_SELECT_A
   *DEL*:           000006H   BYTE   UNIT     CODE           ?PR?CHIP_SELECT_B_READ?CHIP_SELECT_B
   *DEL*:           000014H   BYTE   UNIT     CODE           ?PR?_SETANALOGROUTINGPUMPS?CYFITTER_CFG
   *DEL*:           000004H   BYTE   UNIT     CODE           ?PR?_CyDelay?CYBOOTASMKEIL
   *DEL*:           000019H   BYTE   UNIT     CODE           ?PR?CYMEMZERO?CYMEM
   *DEL*:           00002DH   BYTE   UNIT     CODE           ?PR?CFG_WRITE_BYTES?CYMEM
   *DEL*:           00002EH   BYTE   UNIT     CODE           ?PR?CY_WRITE_BYTES_CODE?CYMEM
   *DEL*:           000015H   BYTE   UNIT     CODE           ?PR?CYREAD32?CYMEM
   *DEL*:           000015H   BYTE   UNIT     CODE           ?PR?CYWRITE32?CYMEM
   *DEL*:           0001A9H   BYTE   UNIT     CODE           ?PR?CYPMSAVECLOCKS?CYPM
   *DEL*:           00024CH   BYTE   UNIT     CODE           ?PR?CYPMRESTORECLOCKS?CYPM
   *DEL*:           000003H   BYTE   UNIT     XDATA          ?XD?CYPMRESTORECLOCKS?CYPM
   *DEL*:           0000E0H   BYTE   UNIT     CODE           ?PR?_CYPMALTACT?CYPM
   *DEL*:           000004H   BYTE   UNIT     XDATA          ?XD?_CYPMALTACT?CYPM
   *DEL*:           000160H   BYTE   UNIT     CODE           ?PR?_CYPMSLEEP?CYPM
   *DEL*:           000004H   BYTE   UNIT     XDATA          ?XD?_CYPMSLEEP?CYPM
   *DEL*:           000008H   BYTE   UNIT     CODE           ?PR?CYPMHIBERNATE?CYPM
   *DEL*:           0000D6H   BYTE   UNIT     CODE           ?PR?_CYPMHIBERNATEEX?CYPM
   *DEL*:           000003H   BYTE   UNIT     XDATA          ?XD?_CYPMHIBERNATEEX?CYPM
   *DEL*:           000039H   BYTE   UNIT     CODE           ?PR?_CYPMREADSTATUS?CYPM
   *DEL*:           000002H   BYTE   UNIT     XDATA          ?XD?_CYPMREADSTATUS?CYPM
   *DEL*:           000076H   BYTE   UNIT     CODE           ?PR?CYPMHIBSAVESET?CYPM
   *DEL*:           000040H   BYTE   UNIT     CODE           ?PR?CYPMHIBRESTORE?CYPM
   *DEL*:           000049H   BYTE   UNIT     CODE           ?PR?_CYPMCTWSETINTERVAL?CYPM
   *DEL*:           000001H   BYTE   UNIT     XDATA          ?XD?_CYPMCTWSETINTERVAL?CYPM
LX51 LINKER/LOCATER V4.64.0.0                                                         09/27/2016  11:48:46  PAGE 11


   *DEL*:           000017H   BYTE   UNIT     CODE           ?PR?CYPMOPPSSET?CYPM
   *DEL*:           00004DH   BYTE   UNIT     CODE           ?PR?_CYPMFTWSETINTERVAL?CYPM
   *DEL*:           000001H   BYTE   UNIT     XDATA          ?XD?_CYPMFTWSETINTERVAL?CYPM
   *DEL*:           00018CH   BYTE   UNIT     CODE           ?PR?CYPMHIBSLPSAVESET?CYPM
   *DEL*:           00010DH   BYTE   UNIT     CODE           ?PR?CYPMHIBSLPRESTORE?CYPM
   *DEL*:           000082H   BYTE   UNIT     CODE           ?PR?CYPMHVILVISAVEDISABLE?CYPM
   *DEL*:           000033H   BYTE   UNIT     CODE           ?PR?CYPMHVILVIRESTORE?CYPM
   *DEL*:           00000EH   BYTE   UNIT     CONST          ?CO?CYPM
   *DEL*:           000015H   BYTE   UNIT     CODE           ?PR?CYSPCSTOP?CYSPC
   *DEL*:           0000A7H   BYTE   UNIT     CODE           ?PR?_CYSPCLOADMULTIBYTE?CYSPC
   *DEL*:           000007H   BYTE   UNIT     XDATA          ?XD?_CYSPCLOADMULTIBYTE?CYSPC
   *DEL*:           000143H   BYTE   UNIT     CODE           ?PR?_CYSPCLOADROWFULL?CYSPC
   *DEL*:           00000FH   BYTE   UNIT     XDATA          ?XD?_CYSPCLOADROWFULL?CYSPC
   *DEL*:           000030H   BYTE   UNIT     CODE           ?PR?_CYSPCERASESECTOR?CYSPC
   *DEL*:           00000FH   BYTE   UNIT     CODE           ?PR?SPI_IMU_INTCLOCK_STOP?SPI_IMU_INTCLOCK
   *DEL*:           00006EH   BYTE   UNIT     CODE           ?PR?SPI_IMU_INTCLOCK_STOPBLOCK?SPI_IMU_INTCLOCK
   *DEL*:           000002H   BYTE   UNIT     XDATA          ?XD?SPI_IMU_INTCLOCK_STOPBLOCK?SPI_IMU_INTCLOCK
   *DEL*:           000013H   BYTE   UNIT     CODE           ?PR?_SPI_IMU_INTCLOCK_STANDBYPOWER?SPI_IMU_INTCLOCK
   *DEL*:           000131H   BYTE   UNIT     CODE           ?PR?_SPI_IMU_INTCLOCK_SETDIVIDERREGISTER?SPI_IMU_INTCLOCK
   *DEL*:           000007H   BYTE   UNIT     XDATA          ?XD?_SPI_IMU_INTCLOCK_SETDIVIDERREGISTER?SPI_IMU_INTCLOCK
   *DEL*:           00000AH   BYTE   UNIT     CODE           ?PR?SPI_IMU_INTCLOCK_GETDIVIDERREGISTER?SPI_IMU_INTCLOCK
   *DEL*:           00000DH   BYTE   UNIT     CODE           ?PR?_SPI_IMU_INTCLOCK_SETMODEREGISTER?SPI_IMU_INTCLOCK
   *DEL*:           00000EH   BYTE   UNIT     CODE           ?PR?_SPI_IMU_INTCLOCK_CLEARMODEREGISTER?SPI_IMU_INTCLOCK
   *DEL*:           000008H   BYTE   UNIT     CODE           ?PR?SPI_IMU_INTCLOCK_GETMODEREGISTER?SPI_IMU_INTCLOCK
   *DEL*:           000062H   BYTE   UNIT     CODE           ?PR?_SPI_IMU_INTCLOCK_SETSOURCEREGISTER?SPI_IMU_INTCLOCK
   *DEL*:           000003H   BYTE   UNIT     XDATA          ?XD?_SPI_IMU_INTCLOCK_SETSOURCEREGISTER?SPI_IMU_INTCLOCK
   *DEL*:           000008H   BYTE   UNIT     CODE           ?PR?SPI_IMU_INTCLOCK_GETSOURCEREGISTER?SPI_IMU_INTCLOCK



OVERLAY MAP OF MODULE:   .\DP8051_Keil_951\Release\firmware.omf (COMMAND_PROCESSING)


FUNCTION/MODULE                                BIT_GROUP   DATA_GROUP   XDATA_GROUP
--> CALLED FUNCTION/MODULE                    START  STOP  START  STOP  START  STOP
===================================================================================
ISR_WATCHDOG_HANDLER/INTERRUPTIONS            ----- -----  ----- -----  ----- -----

*** NEW ROOT ********************************

ISR_RS485_RX_EXINTERRUPT/INTERRUPTIONS        ----- -----  ----- -----  ----- -----

*** NEW ROOT ********************************

ISR_RS485_RX_INTERRUPT/ISR_RS485_RX           ----- -----  ----- -----  ----- -----

*** NEW ROOT ********************************

?C_C51STARTUP                                 ----- -----  ----- -----  ----- -----
  +--> ?CO?KEILSTART?3
  +--> CYFITTER_CFG/CYFITTER_CFG
  +--> MAIN/MAIN
  +--> ?C_INITSEG

?CO?KEILSTART?3                               ----- -----  ----- -----  ----- -----

CYFITTER_CFG/CYFITTER_CFG                     ----- -----  ----- -----  ----- -----
  +--> CYREAD8/CYMEM
  +--> CYWRITE8/CYMEM
  +--> CFG_DMA_INIT/CYFITTER_CFG
  +--> _CYCONFIGCPY/CYMEM
  +--> ?CO?CYFITTER_CFG
  +--> CYCONFIGCPYCODE/CYMEM
  +--> CLOCKSETUP/CYFITTER_CFG
  +--> ANALOGSETDEFAULT/CYFITTER_CFG
LX51 LINKER/LOCATER V4.64.0.0                                                         09/27/2016  11:48:46  PAGE 12



CYREAD8/CYMEM                                 ----- -----  ----- -----  ----- -----

CYWRITE8/CYMEM                                ----- -----  ----- -----  ----- -----

CFG_DMA_INIT/CYFITTER_CFG                     ----- -----  ----- -----  ----- -----
  +--> CYWRITE16/CYMEM
  +--> ?CO?CYFITTER_CFG

CYWRITE16/CYMEM                               ----- -----  ----- -----  ----- -----

?CO?CYFITTER_CFG                              ----- -----  ----- -----  ----- -----

_CYCONFIGCPY/CYMEM                            ----- -----  ----- -----  0000H 0007H

CYCONFIGCPYCODE/CYMEM                         ----- -----  ----- -----  ----- -----

CLOCKSETUP/CYFITTER_CFG                       ----- -----  ----- -----  0000H 0004H
  +--> CYWRITE16/CYMEM
  +--> CYREAD8/CYMEM
  +--> CYDELAYCYCLES/CYBOOTASMKEIL
  +--> _CYCLOCKSTARTUPERROR/CYFITTER_CFG

CYDELAYCYCLES/CYBOOTASMKEIL                   ----- -----  ----- -----  ----- -----

_CYCLOCKSTARTUPERROR/CYFITTER_CFG             ----- -----  ----- -----  ----- -----

ANALOGSETDEFAULT/CYFITTER_CFG                 ----- -----  ----- -----  ----- -----
  +--> CYREAD8/CYMEM

MAIN/MAIN                                     ----- -----  ----- -----  0000H 0004H
  +--> EEPROM_START/EEPROM
  +--> MEMRECALL/COMMAND_PROCESSING
  +--> _?CYDELAY/CYLIB
  +--> _FTDI_ENABLE_REG_WRITE/FTDI_ENABLE_REG
  +--> UART_RS485_STOP/UART_RS485
  +--> UART_RS485_START/UART_RS485
  +--> UART_RS485_INIT/UART_RS485
  +--> UART_RS485_CLEARRXBUFFER/UART_RS485
  +--> UART_RS485_CLEARTXBUFFER/UART_RS485
  +--> _ISR_RS485_RX_STARTEX/ISR_RS485_RX
  +--> WATCHDOG_COUNTER_START/WATCHDOG_COUNTER
  +--> _ISR_WATCHDOG_STARTEX/ISR_WATCHDOG
  +--> _RS485_CTS_WRITE/RS485_CTS
  +--> MY_TIMER_START/MY_TIMER
  +--> PACER_TIMER_START/PACER_TIMER
  +--> SPI_IMU_START/SPI_IMU
  +--> SPI_IMU_INIT/SPI_IMU
  +--> SPI_IMU_ENABLE/SPI_IMU
  +--> SPI_IMU_CLEARRXBUFFER/SPI_IMU
  +--> SPI_IMU_CLEARTXBUFFER/SPI_IMU
  +--> SPI_IMU_CLEARFIFO/SPI_IMU
  +--> _OPTO_PIN_WRITE/OPTO_PIN
  +--> INITIMUGENERAL/IMU_FUNCTIONS
  +--> ISR_IMU_START/ISR_IMU
  +--> ISR_IMU_ENABLE/ISR_IMU
  +--> _RESET_FF_WRITE/RESET_FF
  +--> FUNCTION_SCHEDULER/INTERRUPTIONS
  +--> FF_STATUS_READ/FF_STATUS
  +--> _WATCHDOG_REFRESH_WRITE/WATCHDOG_REFRESH
  +--> INTERRUPT_MANAGER/INTERRUPTIONS
  +--> UART_RS485_READRXSTATUS/UART_RS485

EEPROM_START/EEPROM                           ----- -----  ----- -----  ----- -----
  +--> EEPROM_ENABLE/EEPROM
LX51 LINKER/LOCATER V4.64.0.0                                                         09/27/2016  11:48:46  PAGE 13



EEPROM_ENABLE/EEPROM                          ----- -----  ----- -----  ----- -----
  +--> CYSETTEMP/CYFLASH
  +--> CYEEPROM_START/CYFLASH

CYSETTEMP/CYFLASH                             ----- -----  ----- -----  000DH 000DH
  +--> CYFLASHGETSPCALGORITHM/CYFLASH
  +--> CYSETTEMPINT/CYFLASH

CYFLASHGETSPCALGORITHM/CYFLASH                ----- -----  ----- -----  000EH 000EH
  +--> CYSPCSTART/CYSPC
  +--> CYSPCLOCK/CYSPC
  +--> CYSPCGETALGORITHM/CYSPC
  +--> CYDELAYUS/CYBOOTASMKEIL
  +--> CYSPCUNLOCK/CYSPC

CYSPCSTART/CYSPC                              ----- -----  ----- -----  ----- -----
  +--> CYENTERCRITICALSECTION/CYBOOTASMKEIL
  +--> CYEXITCRITICALSECTION/CYBOOTASMKEIL

CYENTERCRITICALSECTION/CYBOOTASMKEIL          ----- -----  ----- -----  ----- -----

CYEXITCRITICALSECTION/CYBOOTASMKEIL           ----- -----  ----- -----  ----- -----

CYSPCLOCK/CYSPC                               ----- -----  ----- -----  0012H 0012H
  +--> CYENTERCRITICALSECTION/CYBOOTASMKEIL
  +--> CYEXITCRITICALSECTION/CYBOOTASMKEIL

CYSPCGETALGORITHM/CYSPC                       ----- -----  ----- -----  ----- -----

CYDELAYUS/CYBOOTASMKEIL                       ----- -----  ----- -----  ----- -----
  +--> CYDELAYCYCLES/CYBOOTASMKEIL

CYSPCUNLOCK/CYSPC                             ----- -----  ----- -----  ----- -----
  +--> CYENTERCRITICALSECTION/CYBOOTASMKEIL
  +--> CYEXITCRITICALSECTION/CYBOOTASMKEIL

CYSETTEMPINT/CYFLASH                          ----- -----  ----- -----  000EH 000EH
  +--> CYSPCSTART/CYSPC
  +--> CYSPCLOCK/CYSPC
  +--> _CYSPCGETTEMP/CYSPC
  +--> _CYSPCREADDATA/CYSPC
  +--> CYDELAYUS/CYBOOTASMKEIL
  +--> CYSPCUNLOCK/CYSPC

_CYSPCGETTEMP/CYSPC                           ----- -----  ----- -----  ----- -----

_CYSPCREADDATA/CYSPC                          ----- -----  ----- -----  000FH 0013H
  +--> CYDELAYUS/CYBOOTASMKEIL

CYEEPROM_START/CYFLASH                        ----- -----  ----- -----  ----- -----
  +--> CYENTERCRITICALSECTION/CYBOOTASMKEIL
  +--> CYEXITCRITICALSECTION/CYBOOTASMKEIL

MEMRECALL/COMMAND_PROCESSING                  ----- -----  ----- -----  ----- -----
  +--> MEMRESTORE/COMMAND_PROCESSING

MEMRESTORE/COMMAND_PROCESSING                 ----- -----  ----- -----  ----- -----
  +--> MEMINIT/COMMAND_PROCESSING
  +--> _MEMSTORE/COMMAND_PROCESSING

MEMINIT/COMMAND_PROCESSING                    ----- -----  ----- -----  0005H 0005H
  +--> _MEMSTORE/COMMAND_PROCESSING

_MEMSTORE/COMMAND_PROCESSING                  ----- -----  ----- -----  0006H 000CH
LX51 LINKER/LOCATER V4.64.0.0                                                         09/27/2016  11:48:46  PAGE 14


  +--> ISR_RS485_RX_DISABLE/ISR_RS485_RX
  +--> CYSETTEMP/CYFLASH
  +--> _EEPROM_WRITE/EEPROM
  +--> ISR_RS485_RX_ENABLE/ISR_RS485_RX

ISR_RS485_RX_DISABLE/ISR_RS485_RX             ----- -----  ----- -----  ----- -----

_EEPROM_WRITE/EEPROM                          ----- -----  ----- -----  000DH 0011H
  +--> CYSPCSTART/CYSPC
  +--> CYSPCLOCK/CYSPC
  +--> _CYSPCLOADROW/CYSPC
  +--> _CYSPCWRITEROW/CYSPC
  +--> CYSPCUNLOCK/CYSPC

_CYSPCLOADROW/CYSPC                           ----- -----  ----- -----  0012H 0018H

_CYSPCWRITEROW/CYSPC                          ----- -----  ----- -----  0012H 0016H

ISR_RS485_RX_ENABLE/ISR_RS485_RX              ----- -----  ----- -----  ----- -----

_?CYDELAY/CYLIB                               ----- -----  ----- -----  ----- -----
  +--> CYDELAYCYCLES/CYBOOTASMKEIL

_FTDI_ENABLE_REG_WRITE/FTDI_ENABLE_REG        ----- -----  ----- -----  ----- -----

UART_RS485_STOP/UART_RS485                    ----- -----  ----- -----  ----- -----
  +--> CYENTERCRITICALSECTION/CYBOOTASMKEIL
  +--> CYEXITCRITICALSECTION/CYBOOTASMKEIL

UART_RS485_START/UART_RS485                   ----- -----  ----- -----  ----- -----
  +--> UART_RS485_INIT/UART_RS485
  +--> UART_RS485_ENABLE/UART_RS485

UART_RS485_INIT/UART_RS485                    ----- -----  ----- -----  ----- -----
  +--> _CYINTSETVECTOR/CYLIB
  +--> _CYINTSETPRIORITY/CYLIB

_CYINTSETVECTOR/CYLIB                         ----- -----  ----- -----  0005H 0009H
  +--> CYREAD16/CYMEM
  +--> CYWRITE16/CYMEM

CYREAD16/CYMEM                                ----- -----  ----- -----  ----- -----

_CYINTSETPRIORITY/CYLIB                       ----- -----  ----- -----  ----- -----

UART_RS485_ENABLE/UART_RS485                  ----- -----  ----- -----  ----- -----
  +--> CYENTERCRITICALSECTION/CYBOOTASMKEIL
  +--> CYEXITCRITICALSECTION/CYBOOTASMKEIL

UART_RS485_CLEARRXBUFFER/UART_RS485           ----- -----  ----- -----  ----- -----
  +--> CYENTERCRITICALSECTION/CYBOOTASMKEIL
  +--> CYEXITCRITICALSECTION/CYBOOTASMKEIL

UART_RS485_CLEARTXBUFFER/UART_RS485           ----- -----  ----- -----  ----- -----
  +--> CYENTERCRITICALSECTION/CYBOOTASMKEIL
  +--> CYEXITCRITICALSECTION/CYBOOTASMKEIL

_ISR_RS485_RX_STARTEX/ISR_RS485_RX            ----- -----  ----- -----  0005H 0006H
  +--> ISR_RS485_RX_DISABLE/ISR_RS485_RX
  +--> _ISR_RS485_RX_SETVECTOR/ISR_RS485_RX
  +--> _ISR_RS485_RX_SETPRIORITY/ISR_RS485_RX
  +--> ISR_RS485_RX_ENABLE/ISR_RS485_RX

_ISR_RS485_RX_SETVECTOR/ISR_RS485_RX          ----- -----  ----- -----  ----- -----
  +--> CYWRITE16/CYMEM
LX51 LINKER/LOCATER V4.64.0.0                                                         09/27/2016  11:48:46  PAGE 15



_ISR_RS485_RX_SETPRIORITY/ISR_RS485_RX        ----- -----  ----- -----  ----- -----

WATCHDOG_COUNTER_START/WATCHDOG_COUNTER       ----- -----  ----- -----  ----- -----
  +--> WATCHDOG_COUNTER_INIT/WATCHDOG_COUNTER
  +--> WATCHDOG_COUNTER_ENABLE/WATCHDOG_COUNTER

WATCHDOG_COUNTER_INIT/WATCHDOG_COUNTER        ----- -----  ----- -----  ----- -----
  +--> _WATCHDOG_COUNTER_WRITEPERIOD/WATCHDOG_COUNTER
  +--> _WATCHDOG_COUNTER_WRITECOUNTER/WATCHDOG_COUNTER
  +--> _WATCHDOG_COUNTER_SETINTERRUPTMODE/WATCHDOG_COUNTER

_WATCHDOG_COUNTER_WRITEPERIOD/WATCHDOG_C+     ----- -----  ----- -----  ----- -----
... OUNTER
  +--> CYWRITE16/CYMEM

_WATCHDOG_COUNTER_WRITECOUNTER/WATCHDOG_+     ----- -----  ----- -----  ----- -----
... COUNTER
  +--> CYWRITE16/CYMEM

_WATCHDOG_COUNTER_SETINTERRUPTMODE/WATCH+     ----- -----  ----- -----  ----- -----
... DOG_COUNTER

WATCHDOG_COUNTER_ENABLE/WATCHDOG_COUNTER      ----- -----  ----- -----  ----- -----

_ISR_WATCHDOG_STARTEX/ISR_WATCHDOG            ----- -----  ----- -----  0005H 0006H
  +--> ISR_WATCHDOG_DISABLE/ISR_WATCHDOG
  +--> _ISR_WATCHDOG_SETVECTOR/ISR_WATCHDOG
  +--> _ISR_WATCHDOG_SETPRIORITY/ISR_WATCHDOG
  +--> ISR_WATCHDOG_ENABLE/ISR_WATCHDOG

ISR_WATCHDOG_DISABLE/ISR_WATCHDOG             ----- -----  ----- -----  ----- -----

_ISR_WATCHDOG_SETVECTOR/ISR_WATCHDOG          ----- -----  ----- -----  ----- -----
  +--> CYWRITE16/CYMEM

_ISR_WATCHDOG_SETPRIORITY/ISR_WATCHDOG        ----- -----  ----- -----  ----- -----

ISR_WATCHDOG_ENABLE/ISR_WATCHDOG              ----- -----  ----- -----  ----- -----

_RS485_CTS_WRITE/RS485_CTS                    ----- -----  ----- -----  ----- -----

MY_TIMER_START/MY_TIMER                       ----- -----  ----- -----  ----- -----
  +--> MY_TIMER_INIT/MY_TIMER
  +--> MY_TIMER_ENABLE/MY_TIMER

MY_TIMER_INIT/MY_TIMER                        ----- -----  ----- -----  ----- -----
  +--> _MY_TIMER_WRITEPERIOD/MY_TIMER
  +--> _MY_TIMER_WRITECOUNTER/MY_TIMER
  +--> CYENTERCRITICALSECTION/CYBOOTASMKEIL
  +--> CYEXITCRITICALSECTION/CYBOOTASMKEIL
  +--> MY_TIMER_CLEARFIFO/MY_TIMER
  +--> _MY_TIMER_SETINTERRUPTMODE/MY_TIMER

_MY_TIMER_WRITEPERIOD/MY_TIMER                ----- -----  ----- -----  ----- -----
  +--> CYWRITE24/CYMEM

CYWRITE24/CYMEM                               ----- -----  ----- -----  ----- -----

_MY_TIMER_WRITECOUNTER/MY_TIMER               ----- -----  ----- -----  ----- -----
  +--> CYWRITE24/CYMEM

MY_TIMER_CLEARFIFO/MY_TIMER                   ----- -----  ----- -----  ----- -----
  +--> MY_TIMER_READSTATUSREGISTER/MY_TIMER
  +--> MY_TIMER_READCAPTURE/MY_TIMER
LX51 LINKER/LOCATER V4.64.0.0                                                         09/27/2016  11:48:46  PAGE 16



MY_TIMER_READSTATUSREGISTER/MY_TIMER          ----- -----  ----- -----  ----- -----

MY_TIMER_READCAPTURE/MY_TIMER                 ----- -----  ----- -----  ----- -----
  +--> CYREAD24/CYMEM

CYREAD24/CYMEM                                ----- -----  ----- -----  ----- -----

_MY_TIMER_SETINTERRUPTMODE/MY_TIMER           ----- -----  ----- -----  ----- -----

MY_TIMER_ENABLE/MY_TIMER                      ----- -----  ----- -----  ----- -----

PACER_TIMER_START/PACER_TIMER                 ----- -----  ----- -----  ----- -----
  +--> PACER_TIMER_INIT/PACER_TIMER
  +--> PACER_TIMER_ENABLE/PACER_TIMER

PACER_TIMER_INIT/PACER_TIMER                  ----- -----  ----- -----  ----- -----
  +--> _PACER_TIMER_WRITEPERIOD/PACER_TIMER
  +--> _PACER_TIMER_WRITECOUNTER/PACER_TIMER
  +--> _PACER_TIMER_SETINTERRUPTMODE/PACER_TIMER

_PACER_TIMER_WRITEPERIOD/PACER_TIMER          ----- -----  ----- -----  ----- -----
  +--> CYWRITE16/CYMEM

_PACER_TIMER_WRITECOUNTER/PACER_TIMER         ----- -----  ----- -----  ----- -----
  +--> CYWRITE16/CYMEM

_PACER_TIMER_SETINTERRUPTMODE/PACER_TIME+     ----- -----  ----- -----  ----- -----
... R

PACER_TIMER_ENABLE/PACER_TIMER                ----- -----  ----- -----  ----- -----

SPI_IMU_START/SPI_IMU                         ----- -----  ----- -----  ----- -----
  +--> SPI_IMU_INIT/SPI_IMU
  +--> SPI_IMU_ENABLE/SPI_IMU

SPI_IMU_INIT/SPI_IMU                          ----- -----  ----- -----  ----- -----
  +--> SPI_IMU_CLEARFIFO/SPI_IMU
  +--> SPI_IMU_READTXSTATUS/SPI_IMU
  +--> SPI_IMU_READRXSTATUS/SPI_IMU

SPI_IMU_CLEARFIFO/SPI_IMU                     ----- -----  ----- -----  ----- -----
  +--> CYENTERCRITICALSECTION/CYBOOTASMKEIL
  +--> CYEXITCRITICALSECTION/CYBOOTASMKEIL

SPI_IMU_READTXSTATUS/SPI_IMU                  ----- -----  ----- -----  ----- -----

SPI_IMU_READRXSTATUS/SPI_IMU                  ----- -----  ----- -----  ----- -----

SPI_IMU_ENABLE/SPI_IMU                        ----- -----  ----- -----  ----- -----
  +--> CYENTERCRITICALSECTION/CYBOOTASMKEIL
  +--> CYEXITCRITICALSECTION/CYBOOTASMKEIL
  +--> SPI_IMU_INTCLOCK_START/SPI_IMU_INTCLOCK
  +--> SPI_IMU_ENABLETXINT/SPI_IMU
  +--> SPI_IMU_ENABLERXINT/SPI_IMU

SPI_IMU_INTCLOCK_START/SPI_IMU_INTCLOCK       ----- -----  ----- -----  ----- -----

SPI_IMU_ENABLETXINT/SPI_IMU                   ----- -----  ----- -----  ----- -----

SPI_IMU_ENABLERXINT/SPI_IMU                   ----- -----  ----- -----  ----- -----

SPI_IMU_CLEARRXBUFFER/SPI_IMU                 ----- -----  ----- -----  ----- -----

SPI_IMU_CLEARTXBUFFER/SPI_IMU                 ----- -----  ----- -----  ----- -----
LX51 LINKER/LOCATER V4.64.0.0                                                         09/27/2016  11:48:46  PAGE 17


  +--> CYENTERCRITICALSECTION/CYBOOTASMKEIL
  +--> CYEXITCRITICALSECTION/CYBOOTASMKEIL

_OPTO_PIN_WRITE/OPTO_PIN                      ----- -----  ----- -----  ----- -----

INITIMUGENERAL/IMU_FUNCTIONS                  ----- -----  ----- -----  04E7H 050CH
  +--> _CHIPSELECTOR/IMU_FUNCTIONS
  +--> _?CYDELAY/CYLIB
  +--> INITIMUMAGCAL/IMU_FUNCTIONS
  +--> _READMAGCAL/IMU_FUNCTIONS
  +--> _READCONTROLREGISTER/IMU_FUNCTIONS
  +--> _OPTO_PIN_WRITE/OPTO_PIN
  +--> INITIMU/IMU_FUNCTIONS

_CHIPSELECTOR/IMU_FUNCTIONS                   ----- -----  ----- -----  0688H 0689H
  +--> _CHIP_SELECT_A_WRITE/CHIP_SELECT_A
  +--> _CHIP_SELECT_B_WRITE/CHIP_SELECT_B

_CHIP_SELECT_A_WRITE/CHIP_SELECT_A            ----- -----  ----- -----  ----- -----

_CHIP_SELECT_B_WRITE/CHIP_SELECT_B            ----- -----  ----- -----  ----- -----

INITIMUMAGCAL/IMU_FUNCTIONS                   ----- -----  ----- -----  ----- -----
  +--> _WRITECONTROLREGISTER/IMU_FUNCTIONS
  +--> _?CYDELAY/CYLIB

_WRITECONTROLREGISTER/IMU_FUNCTIONS           ----- -----  ----- -----  050DH 050EH
  +--> SPI_IMU_CLEARRXBUFFER/SPI_IMU
  +--> SPI_IMU_CLEARTXBUFFER/SPI_IMU
  +--> SPI_IMU_CLEARFIFO/SPI_IMU
  +--> _SPI_IMU_WRITETXDATA/SPI_IMU
  +--> SPI_IMU_READSTATUS/SPI_IMU

_SPI_IMU_WRITETXDATA/SPI_IMU                  ----- -----  ----- -----  ----- -----

SPI_IMU_READSTATUS/SPI_IMU                    ----- -----  ----- -----  ----- -----

_READMAGCAL/IMU_FUNCTIONS                     ----- -----  ----- -----  050DH 050FH
  +--> _READCONTROLREGISTER/IMU_FUNCTIONS

_READCONTROLREGISTER/IMU_FUNCTIONS            ----- -----  ----- -----  ----- -----
  +--> _SPI_IMU_WRITETXDATA/SPI_IMU
  +--> SPI_IMU_READSTATUS/SPI_IMU
  +--> SPI_IMU_READRXDATA/SPI_IMU

SPI_IMU_READRXDATA/SPI_IMU                    ----- -----  ----- -----  ----- -----

INITIMU/IMU_FUNCTIONS                         ----- -----  ----- -----  ----- -----
  +--> _WRITECONTROLREGISTER/IMU_FUNCTIONS
  +--> _?CYDELAY/CYLIB

ISR_IMU_START/ISR_IMU                         ----- -----  ----- -----  ----- -----
  +--> ISR_IMU_DISABLE/ISR_IMU
  +--> _ISR_IMU_SETVECTOR/ISR_IMU
  +--> _ISR_IMU_SETPRIORITY/ISR_IMU
  +--> ISR_IMU_ENABLE/ISR_IMU

ISR_IMU_DISABLE/ISR_IMU                       ----- -----  ----- -----  ----- -----

_ISR_IMU_SETVECTOR/ISR_IMU                    ----- -----  ----- -----  ----- -----
  +--> CYWRITE16/CYMEM

_ISR_IMU_SETPRIORITY/ISR_IMU                  ----- -----  ----- -----  ----- -----

ISR_IMU_ENABLE/ISR_IMU                        ----- -----  ----- -----  ----- -----
LX51 LINKER/LOCATER V4.64.0.0                                                         09/27/2016  11:48:46  PAGE 18



_RESET_FF_WRITE/RESET_FF                      ----- -----  ----- -----  ----- -----

FUNCTION_SCHEDULER/INTERRUPTIONS              ----- -----  ----- -----  ----- -----
  +--> MY_TIMER_READCOUNTER/MY_TIMER
  +--> INTERRUPT_MANAGER/INTERRUPTIONS
  +--> _MY_TIMER_WRITECOUNTER/MY_TIMER

MY_TIMER_READCOUNTER/MY_TIMER                 ----- -----  ----- -----  ----- -----
  +--> CYREAD24/CYMEM

INTERRUPT_MANAGER/INTERRUPTIONS               20H.0 20H.0  0008H 0009H  ----- -----
  +--> UART_RS485_GETRXBUFFERSIZE/UART_RS485
  +--> UART_RS485_GETCHAR/UART_RS485
  +--> _INFOGET/COMMAND_PROCESSING
  +--> COMMPROCESS/COMMAND_PROCESSING
  +--> _RS485_CTS_WRITE/RS485_CTS

UART_RS485_GETRXBUFFERSIZE/UART_RS485         ----- -----  ----- -----  ----- -----

UART_RS485_GETCHAR/UART_RS485                 ----- -----  ----- -----  ----- -----

_INFOGET/COMMAND_PROCESSING                   ----- -----  ----- -----  ----- -----
  +--> _INFOPREPARE/COMMAND_PROCESSING
  +--> _UART_RS485_PUTSTRING/UART_RS485

_INFOPREPARE/COMMAND_PROCESSING               ----- -----  ----- -----  0005H 006DH
  +--> ?CO?COMMAND_PROCESSING
  +--> _STRCAT/STRCAT
  +--> PRINTF/PRINTF

?CO?COMMAND_PROCESSING                        ----- -----  ----- -----  ----- -----

_STRCAT/STRCAT                                ----- -----  ----- -----  04E5H 04EDH

PRINTF/PRINTF                                 20H.1 21H.1  000BH 000FH  006EH 009DH
  +--> PUTCHAR/PUTCHAR

PUTCHAR/PUTCHAR                               ----- -----  ----- -----  ----- -----

_UART_RS485_PUTSTRING/UART_RS485              ----- -----  ----- -----  0005H 0007H
  +--> _UART_RS485_PUTCHAR/UART_RS485

_UART_RS485_PUTCHAR/UART_RS485                ----- -----  ----- -----  ----- -----

COMMPROCESS/COMMAND_PROCESSING                ----- -----  000AH 000AH  ----- -----
  +--> _LCRCHECKSUM/COMMAND_PROCESSING
  +--> CMD_ACTIVATE/COMMAND_PROCESSING
  +--> CMD_SET_INPUTS/COMMAND_PROCESSING
  +--> CMD_GET_MEASUREMENTS/COMMAND_PROCESSING
  +--> CMD_GET_CURRENTS/COMMAND_PROCESSING
  +--> CMD_GET_EMG/COMMAND_PROCESSING
  +--> CMD_SET_WATCHDOG/COMMAND_PROCESSING
  +--> CMD_GET_ACTIVATE/COMMAND_PROCESSING
  +--> CMD_SET_BAUDRATE/COMMAND_PROCESSING
  +--> CMD_GET_INPUTS/COMMAND_PROCESSING
  +--> _INFOGET/COMMAND_PROCESSING
  +--> SETZEROS/COMMAND_PROCESSING
  +--> _GET_PARAM_LIST/COMMAND_PROCESSING
  +--> CMD_PING/COMMAND_PROCESSING
  +--> CMD_STORE_PARAMS/COMMAND_PROCESSING
  +--> _MEMSTORE/COMMAND_PROCESSING
  +--> _SENDACKNOWLEDGMENT/COMMAND_PROCESSING
  +--> MEMRESTORE/COMMAND_PROCESSING
  +--> MEMINIT/COMMAND_PROCESSING
LX51 LINKER/LOCATER V4.64.0.0                                                         09/27/2016  11:48:46  PAGE 19


  +--> _?CYDELAY/CYLIB
  +--> _FTDI_ENABLE_REG_WRITE/FTDI_ENABLE_REG
  +--> BOOTLOADABLE_LOAD/BOOTLOADABLE
  +--> CMD_GET_N_IMU/COMMAND_PROCESSING
  +--> CMD_GET_MAG_PARAM/COMMAND_PROCESSING
  +--> CMD_GET_IMU_READINGS/COMMAND_PROCESSING
  +--> CMD_SET_IMU_MODE/COMMAND_PROCESSING
  +--> CMD_GET_IMUS_MODE/COMMAND_PROCESSING
  +--> CMD_GET_IMUS_SFS/COMMAND_PROCESSING

_LCRCHECKSUM/COMMAND_PROCESSING               ----- -----  0019H 001AH  0688H 068AH

CMD_ACTIVATE/COMMAND_PROCESSING               ----- -----  ----- -----  ----- -----

CMD_SET_INPUTS/COMMAND_PROCESSING             ----- -----  ----- -----  ----- -----

CMD_GET_MEASUREMENTS/COMMAND_PROCESSING       ----- -----  ----- -----  ----- -----

CMD_GET_CURRENTS/COMMAND_PROCESSING           ----- -----  ----- -----  ----- -----

CMD_GET_EMG/COMMAND_PROCESSING                ----- -----  ----- -----  ----- -----

CMD_SET_WATCHDOG/COMMAND_PROCESSING           ----- -----  ----- -----  ----- -----
  +--> _WATCHDOG_ENABLER_WRITE/WATCHDOG_ENABLER
  +--> _WATCHDOG_COUNTER_WRITEPERIOD/WATCHDOG_COUNTER

_WATCHDOG_ENABLER_WRITE/WATCHDOG_ENABLER      ----- -----  ----- -----  ----- -----

CMD_GET_ACTIVATE/COMMAND_PROCESSING           ----- -----  ----- -----  ----- -----

CMD_SET_BAUDRATE/COMMAND_PROCESSING           ----- -----  ----- -----  ----- -----
  +--> _CLOCK_UART_SETDIVIDERREGISTER/CLOCK_UART

_CLOCK_UART_SETDIVIDERREGISTER/CLOCK_UAR+     ----- -----  ----- -----  0005H 000BH
... T
  +--> CLOCK_UART_GETSOURCEREGISTER/CLOCK_UART
  +--> CLOCK_UART_GETDIVIDERREGISTER/CLOCK_UART
  +--> CYWRITE16/CYMEM

CLOCK_UART_GETSOURCEREGISTER/CLOCK_UART       ----- -----  ----- -----  ----- -----

CLOCK_UART_GETDIVIDERREGISTER/CLOCK_UART      ----- -----  ----- -----  ----- -----
  +--> CYREAD16/CYMEM

CMD_GET_INPUTS/COMMAND_PROCESSING             ----- -----  ----- -----  ----- -----

SETZEROS/COMMAND_PROCESSING                   ----- -----  ----- -----  ----- -----

_GET_PARAM_LIST/COMMAND_PROCESSING            ----- -----  000BH 0016H  0005H 04E4H
  +--> ?CO?COMMAND_PROCESSING
  +--> _STRLEN/STRLEN
  +--> _STRCAT/STRCAT
  +--> _LCRCHECKSUM/COMMAND_PROCESSING
  +--> _COMMWRITE/COMMAND_PROCESSING
  +--> UART_RS485_CLEARTXBUFFER/UART_RS485
  +--> IMUSRESET/IMU_FUNCTIONS

_STRLEN/STRLEN                                ----- -----  ----- -----  ----- -----

_COMMWRITE/COMMAND_PROCESSING                 ----- -----  0019H 001AH  0688H 068CH
  +--> _UART_RS485_PUTCHAR/UART_RS485
  +--> UART_RS485_READTXSTATUS/UART_RS485
  +--> _RS485_CTS_WRITE/RS485_CTS

UART_RS485_READTXSTATUS/UART_RS485            ----- -----  ----- -----  ----- -----
LX51 LINKER/LOCATER V4.64.0.0                                                         09/27/2016  11:48:46  PAGE 20



IMUSRESET/IMU_FUNCTIONS                       ----- -----  ----- -----  04E5H 04E6H
  +--> ISR_IMU_STOP/ISR_IMU
  +--> ISR_IMU_DISABLE/ISR_IMU
  +--> _OPTO_PIN_WRITE/OPTO_PIN
  +--> _?CYDELAY/CYLIB
  +--> INITIMUGENERAL/IMU_FUNCTIONS
  +--> ISR_IMU_START/ISR_IMU
  +--> ISR_IMU_ENABLE/ISR_IMU

ISR_IMU_STOP/ISR_IMU                          ----- -----  ----- -----  ----- -----
  +--> ISR_IMU_DISABLE/ISR_IMU

CMD_PING/COMMAND_PROCESSING                   ----- -----  ----- -----  0005H 0006H
  +--> _COMMWRITE/COMMAND_PROCESSING

CMD_STORE_PARAMS/COMMAND_PROCESSING           ----- -----  ----- -----  ----- -----
  +--> _MEMSTORE/COMMAND_PROCESSING
  +--> _SENDACKNOWLEDGMENT/COMMAND_PROCESSING

_SENDACKNOWLEDGMENT/COMMAND_PROCESSING        ----- -----  ----- -----  0005H 0006H
  +--> _COMMWRITE/COMMAND_PROCESSING

BOOTLOADABLE_LOAD/BOOTLOADABLE                ----- -----  ----- -----  ----- -----
  +--> CYSOFTWARERESET/CYLIB

CYSOFTWARERESET/CYLIB                         ----- -----  ----- -----  ----- -----

CMD_GET_N_IMU/COMMAND_PROCESSING              ----- -----  ----- -----  0005H 0007H
  +--> _LCRCHECKSUM/COMMAND_PROCESSING
  +--> _COMMWRITE/COMMAND_PROCESSING

CMD_GET_MAG_PARAM/COMMAND_PROCESSING          ----- -----  000BH 000BH  0005H 0037H
  +--> _LCRCHECKSUM/COMMAND_PROCESSING
  +--> _COMMWRITE/COMMAND_PROCESSING

CMD_GET_IMU_READINGS/COMMAND_PROCESSING       ----- -----  ----- -----  ----- -----

CMD_SET_IMU_MODE/COMMAND_PROCESSING           ----- -----  ----- -----  ----- -----

CMD_GET_IMUS_MODE/COMMAND_PROCESSING          ----- -----  000BH 000BH  0005H 0037H
  +--> _LCRCHECKSUM/COMMAND_PROCESSING
  +--> _COMMWRITE/COMMAND_PROCESSING

CMD_GET_IMUS_SFS/COMMAND_PROCESSING           ----- -----  ----- -----  0005H 0043H
  +--> _LCRCHECKSUM/COMMAND_PROCESSING
  +--> _COMMWRITE/COMMAND_PROCESSING

FF_STATUS_READ/FF_STATUS                      ----- -----  ----- -----  ----- -----

_WATCHDOG_REFRESH_WRITE/WATCHDOG_REFRESH      ----- -----  ----- -----  ----- -----

UART_RS485_READRXSTATUS/UART_RS485            ----- -----  ----- -----  ----- -----

?C_INITSEG                                    ----- -----  ----- -----  ----- -----

*** NEW ROOT ********************************

ISR_WATCHDOG_INTERRUPT/ISR_WATCHDOG           ----- -----  ----- -----  ----- -----

*** NEW ROOT ********************************

ISR_IMU_INTERRUPT/ISR_IMU                     ----- -----  ----- -----  0510H 0687H
  +--> _CHIPSELECTOR/IMU_FUNCTIONS
  +--> _READIMU/IMU_FUNCTIONS
LX51 LINKER/LOCATER V4.64.0.0                                                         09/27/2016  11:48:46  PAGE 21


  +--> _LCRCHECKSUM/COMMAND_PROCESSING
  +--> _COMMWRITE/COMMAND_PROCESSING

_READIMU/IMU_FUNCTIONS                        ----- -----  ----- -----  0688H 0689H
  +--> _READACC/IMU_FUNCTIONS
  +--> _READGYRO/IMU_FUNCTIONS
  +--> _READMAG/IMU_FUNCTIONS

_READACC/IMU_FUNCTIONS                        ----- -----  ----- -----  068AH 068DH
  +--> _READCONTROLREGISTER/IMU_FUNCTIONS

_READGYRO/IMU_FUNCTIONS                       ----- -----  ----- -----  068AH 068DH
  +--> _READCONTROLREGISTER/IMU_FUNCTIONS

_READMAG/IMU_FUNCTIONS                        ----- -----  ----- -----  068AH 068DH
  +--> _READCONTROLREGISTER/IMU_FUNCTIONS

*** NEW ROOT ********************************

UART_RS485_RXISR/UART_RS485_INT               ----- -----  ----- -----  ----- -----



PUBLIC SYMBOLS OF MODULE:  .\DP8051_Keil_951\Release\firmware.omf (COMMAND_PROCESSING)


      VALUE       CLASS    TYPE      PUBLIC SYMBOL NAME
      =================================================
*DEL*:00000000H   XDATA    BYTE      ?_Bootloadable_SetFlashByte?BYTE
*DEL*:00000000H   XDATA    BYTE      ?_calc_turns_fcn?BYTE
      02000000H   XDATA    BYTE      ?_cyconfigcpy?BYTE
*DEL*:00000000H   XDATA    BYTE      ?_CySpcLoadMultiByte?BYTE
      02000012H   XDATA    BYTE      ?_CySpcLoadRow?BYTE
*DEL*:00000000H   XDATA    BYTE      ?_CySpcLoadRowFull?BYTE
      02000012H   XDATA    BYTE      ?_CySpcWriteRow?BYTE
*DEL*:00000000H   XDATA    BYTE      ?_CyWriteRowFull?BYTE
*DEL*:00000000H   XDATA    BYTE      ?_my_mod?BYTE
      0200006EH   XDATA    ---       ?_PRINTF?BYTE
      0200006EH   XDATA    ---       ?_SPRINTF?BYTE
      020004E5H   XDATA    ---       ?_strcat?BYTE
      01002E1EH   CODE     ---       ?C?ADDXBP
      010028CFH   CODE     ---       ?C?CASTF
      01002DF8H   CODE     ---       ?C?CCASE
      01002BBBH   CODE     ---       ?C?CLDOPTR
      01002BA2H   CODE     ---       ?C?CLDPTR
      00000000H   NUMBER   ---       ?C?CODESEG
      01002F57H   CODE     ---       ?C?COPYAMD
      01002BE8H   CODE     ---       ?C?CSTPTR
      0100289BH   CODE     ---       ?C?FCASTC
      01002896H   CODE     ---       ?C?FCASTI
      01002891H   CODE     ---       ?C?FCASTL
      01002621H   CODE     ---       ?C?FPADD
      0100281AH   CODE     ---       ?C?FPCMP
      01002818H   CODE     ---       ?C?FPCMP3
      0100298DH   CODE     ---       ?C?FPCONVERT
      01002A95H   CODE     ---       ?C?FPDIV
      01002906H   CODE     ---       ?C?FPGETOPN2
      01002712H   CODE     ---       ?C?FPMUL
      0100293BH   CODE     ---       ?C?FPNANRESULT
      01002945H   CODE     ---       ?C?FPOVERFLOW
      0100291DH   CODE     ---       ?C?FPRESULT
      01002931H   CODE     ---       ?C?FPRESULT2
      01002950H   CODE     ---       ?C?FPROUND
      0100261DH   CODE     ---       ?C?FPSUB
      01002942H   CODE     ---       ?C?FPUNDERFLOW
LX51 LINKER/LOCATER V4.64.0.0                                                         09/27/2016  11:48:46  PAGE 22


      01002B62H   CODE     ---       ?C?FTNPWR
      01003052H   CODE     ---       ?C?IILDX
      01003068H   CODE     ---       ?C?ILDIX
      01002E42H   CODE     ---       ?C?LIMUL
      010030A2H   CODE     ---       ?C?LLDCODE
      0100307EH   CODE     ---       ?C?LLDIDATA
      01003096H   CODE     ---       ?C?LLDPDATA
      01002D86H   CODE     ---       ?C?LLDPTR
      0100308AH   CODE     ---       ?C?LLDXDATA
      01002BFAH   CODE     ---       ?C?LMUL
      01002D17H   CODE     ---       ?C?LNEG
      01002D73H   CODE     ---       ?C?LSHL
      010030B2H   CODE     ---       ?C?LSTIDATA
      010030BEH   CODE     ---       ?C?LSTPDATA
      01002DA6H   CODE     ---       ?C?LSTPTR
      01002DC0H   CODE     ---       ?C?LSTXDATA
      01002E6FH   CODE     ---       ?C?MEMSET
      01002DCCH   CODE     ---       ?C?OFFXADD
      01002DD8H   CODE     ---       ?C?PLDIXDATA
      01002DEFH   CODE     ---       ?C?PSTXDATA
      01002D25H   CODE     ---       ?C?SLCMP
      01006FC5H   CODE     ---       ?C?SLDIV
      01002D5FH   CODE     ---       ?C?SLSHR
      01003035H   CODE     ---       ?C?STRCPYAMD
      01002D3BH   CODE     ---       ?C?ULCMP
      01002C85H   CODE     ---       ?C?ULDIV
      01002D4CH   CODE     ---       ?C?ULSHR
      00000000H   NUMBER   ---       ?C?XDATASEG
      00000000H   NUMBER   ---       ?C?XPAGE1RST
      00000093H   DATA     BYTE      ?C?XPAGE1SFR
      01005C9DH   CODE     ---       ?C_START
      01002600H   CODE     NEAR LAB  ?C_STARTUP
      0000001BH   DATA     ---       ?C_XBP
      010069E4H   CODE     ---       _?CyDelay
*DEL*:00000000H   CODE     ---       _?CyDelayFreq
*DEL*:00000000H   CODE     ---       _?CyHalt
*DEL*:00000000H   CODE     ---       _Bootloadable_SetFlashByte
*DEL*:00000000H   CODE     ---       _calc_turns_fcn
*DEL*:00000000H   CODE     NEAR LAB  _cfg_write_bytes
*DEL*:00000000H   CODE     NEAR LAB  _cfg_write_bytes_code
*DEL*:00000000H   CODE     ---       _check_enc_data
      0100795EH   CODE     ---       _Chip_Select_A_Write
      01007964H   CODE     ---       _Chip_Select_B_Write
      01006F35H   CODE     ---       _ChipSelector
*DEL*:00000000H   CODE     ---       _CLOCK_UART_ClearModeRegister
      01005971H   CODE     ---       _CLOCK_UART_SetDividerRegister
*DEL*:00000000H   CODE     ---       _CLOCK_UART_SetModeRegister
*DEL*:00000000H   CODE     ---       _CLOCK_UART_SetSourceRegister
*DEL*:00000000H   CODE     ---       _CLOCK_UART_StandbyPower
      01006957H   CODE     ---       _commWrite
*DEL*:00000000H   CODE     ---       _CyBusClk_SetDivider
      010071A4H   CODE     NEAR LAB  _cyconfigcpy
      010073D7H   CODE     NEAR LAB  _cyconfigcpycode
*DEL*:00000000H   CODE     ---       _CyCpuClk_SetDivider
*DEL*:00000000H   CODE     NEAR LAB  _CyDelay
      01007100H   CODE     NEAR LAB  _CyDelayCycles
      0100732CH   CODE     NEAR LAB  _CyDelayUs
*DEL*:00000000H   CODE     ---       _CyEnableInts
      010075BAH   CODE     NEAR LAB  _CyExitCriticalSection
*DEL*:00000000H   CODE     ---       _CyFlash_SetWaitCycles
*DEL*:00000000H   CODE     ---       _CyGetUniqueId
*DEL*:00000000H   CODE     ---       _CyILO_SetPowerMode
*DEL*:00000000H   CODE     ---       _CyILO_SetSource
*DEL*:00000000H   CODE     ---       _CyIMO_SetFreq
*DEL*:00000000H   CODE     ---       _CyIMO_SetSource
LX51 LINKER/LOCATER V4.64.0.0                                                         09/27/2016  11:48:46  PAGE 23


*DEL*:00000000H   CODE     ---       _CyIMO_Start
*DEL*:00000000H   CODE     ---       _CyIntGetPriority
*DEL*:00000000H   CODE     ---       _CyIntGetState
*DEL*:00000000H   CODE     ---       _CyIntGetVector
      01007570H   CODE     ---       _CyIntSetPriority
      01006DA1H   CODE     ---       _CyIntSetVector
*DEL*:00000000H   CODE     ---       _CyMasterClk_SetDivider
*DEL*:00000000H   CODE     ---       _CyMasterClk_SetSource
*DEL*:00000000H   CODE     NEAR LAB  _cymemzero
*DEL*:00000000H   CODE     ---       _CyPLL_OUT_SetPQ
*DEL*:00000000H   CODE     ---       _CyPLL_OUT_SetSource
*DEL*:00000000H   CODE     ---       _CyPLL_OUT_Start
*DEL*:00000000H   CODE     ---       _CyPmAltAct
*DEL*:00000000H   CODE     ---       _CyPmCtwSetInterval
*DEL*:00000000H   CODE     ---       _CyPmFtwSetInterval
*DEL*:00000000H   CODE     ---       _CyPmHibernateEx
*DEL*:00000000H   CODE     ---       _CyPmReadStatus
*DEL*:00000000H   CODE     ---       _CyPmSleep
      0100779EH   CODE     NEAR LAB  _cyread16
      010077A0H   CODE     NEAR LAB  _cyread16_nodpx
      01007718H   CODE     NEAR LAB  _cyread24
      0100771AH   CODE     NEAR LAB  _cyread24_nodpx
*DEL*:00000000H   CODE     NEAR LAB  _cyread32
*DEL*:00000002H   CODE     NEAR LAB  _cyread32_nodpx
      01007846H   CODE     NEAR LAB  _cyread8
      01007848H   CODE     NEAR LAB  _cyread8_nodpx
*DEL*:00000000H   CODE     ---       _CySetFlashEEBuffer
*DEL*:00000000H   CODE     ---       _CySpcEraseSector
      010072FBH   CODE     ---       _CySpcGetTemp
*DEL*:00000000H   CODE     ---       _CySpcLoadMultiByte
      01006AF0H   CODE     ---       _CySpcLoadRow
*DEL*:00000000H   CODE     ---       _CySpcLoadRowFull
      01006C37H   CODE     ---       _CySpcReadData
      01006DF5H   CODE     ---       _CySpcWriteRow
*DEL*:00000000H   CODE     ---       _CyUsbClk_SetSource
*DEL*:00000000H   CODE     ---       _CyVdLvAnalogEnable
*DEL*:00000000H   CODE     ---       _CyVdLvDigitEnable
*DEL*:00000000H   CODE     ---       _CyVdStickyStatus
*DEL*:00000000H   CODE     ---       _CyWdtStart
      010077ADH   CODE     NEAR LAB  _cywrite16
      010077AFH   CODE     NEAR LAB  _cywrite16_nodpx
      0100774FH   CODE     NEAR LAB  _cywrite24
      01007751H   CODE     NEAR LAB  _cywrite24_nodpx
*DEL*:00000000H   CODE     NEAR LAB  _cywrite32
*DEL*:00000002H   CODE     NEAR LAB  _cywrite32_nodpx
      01007852H   CODE     NEAR LAB  _cywrite8
      01007854H   CODE     NEAR LAB  _cywrite8_nodpx
*DEL*:00000000H   CODE     ---       _CyWriteRowData
*DEL*:00000000H   CODE     ---       _CyWriteRowFull
*DEL*:00000000H   CODE     ---       _CyXTAL_32KHZ_SetPowerMode
*DEL*:00000000H   CODE     ---       _CyXTAL_SetFbVoltage
*DEL*:00000000H   CODE     ---       _CyXTAL_SetStartup
*DEL*:00000000H   CODE     ---       _CyXTAL_SetWdVoltage
*DEL*:00000000H   CODE     ---       _CyXTAL_Start
      01002604H   CODE     NEAR LAB  _dma_wait
*DEL*:00000000H   CODE     ---       _EEPROM_ByteWritePos
*DEL*:00000000H   CODE     ---       _EEPROM_EraseSector
*DEL*:00000000H   CODE     ---       _EEPROM_ReadByte
*DEL*:00000000H   CODE     ---       _EEPROM_StartErase
*DEL*:00000000H   CODE     ---       _EEPROM_StartWrite
      010064C5H   CODE     ---       _EEPROM_Write
*DEL*:00000000H   CODE     ---       _EEPROM_WriteByte
*DEL*:00000000H   CODE     ---       _FF_STATUS_WriteMask
*DEL*:00000000H   CODE     ---       _filter_ch1
*DEL*:00000000H   CODE     ---       _filter_ch2
LX51 LINKER/LOCATER V4.64.0.0                                                         09/27/2016  11:48:46  PAGE 24


*DEL*:00000000H   CODE     ---       _filter_i1
*DEL*:00000000H   CODE     ---       _filter_v
      0100791CH   CODE     ---       _FTDI_ENABLE_REG_Write
      01004730H   CODE     ---       _get_param_list
      01007557H   CODE     ---       _infoGet
      010030CAH   CODE     ---       _infoPrepare
      010078B0H   CODE     ---       _isr_imu_SetPriority
      01007811H   CODE     ---       _isr_imu_SetVector
*DEL*:00000000H   CODE     ---       _isr_imu_StartEx
      0100786AH   CODE     ---       _ISR_RS485_RX_SetPriority
      010077CBH   CODE     ---       _ISR_RS485_RX_SetVector
      010074A6H   CODE     ---       _ISR_RS485_RX_StartEx
      010078A6H   CODE     ---       _ISR_WATCHDOG_SetPriority
      010077F5H   CODE     ---       _ISR_WATCHDOG_SetVector
      010074C5H   CODE     ---       _ISR_WATCHDOG_StartEx
      0100720BH   CODE     ---       _LCRChecksum
      010068AAH   CODE     ---       _memStore
*DEL*:00000000H   CODE     ---       _my_mod
*DEL*:00000000H   CODE     ---       _my_round
      0100792EH   CODE     ---       _MY_TIMER_SetInterruptMode
*DEL*:00000000H   CODE     ---       _MY_TIMER_WriteControlRegister
      0100789CH   CODE     ---       _MY_TIMER_WriteCounter
      01007888H   CODE     ---       _MY_TIMER_WritePeriod
*DEL*:00000000H   CODE     ---       _Opto_Pin_SetDriveMode
      01007761H   CODE     ---       _Opto_Pin_Write
      01007910H   CODE     ---       _PACER_TIMER_SetInterruptMode
*DEL*:00000000H   CODE     ---       _PACER_TIMER_WriteControlRegister
      010077E7H   CODE     ---       _PACER_TIMER_WriteCounter
      010077D9H   CODE     ---       _PACER_TIMER_WritePeriod
      01004DCCH   CODE     ---       _PRINTF
      010073B0H   CODE     ---       _PUTCHAR
      010060E7H   CODE     ---       _ReadAcc
      010075D2H   CODE     ---       _ReadControlRegister
      010061E2H   CODE     ---       _ReadGyro
      01006BCEH   CODE     ---       _ReadIMU
      010062DDH   CODE     ---       _ReadMag
      01006A6CH   CODE     ---       _ReadMagCal
      01007922H   CODE     ---       _RESET_FF_Write
      01007916H   CODE     ---       _RS485_CTS_Write
      01007615H   CODE     ---       _sendAcknowledgment
*DEL*:00000000H   CODE     ---       _SetAnalogRoutingPumps
*DEL*:00000000H   CODE     ---       _SPI_IMU_IntClock_ClearModeRegister
*DEL*:00000000H   CODE     ---       _SPI_IMU_IntClock_SetDividerRegister
*DEL*:00000000H   CODE     ---       _SPI_IMU_IntClock_SetModeRegister
*DEL*:00000000H   CODE     ---       _SPI_IMU_IntClock_SetSourceRegister
*DEL*:00000000H   CODE     ---       _SPI_IMU_IntClock_StandbyPower
*DEL*:00000000H   CODE     ---       _SPI_IMU_PutArray
*DEL*:00000000H   CODE     ---       _SPI_IMU_SetInterruptMode
*DEL*:00000000H   CODE     ---       _SPI_IMU_SetRxInterruptMode
*DEL*:00000000H   CODE     ---       _SPI_IMU_SetTxInterruptMode
      01007839H   CODE     ---       _SPI_IMU_WriteTxData
      01004DC6H   CODE     ---       _SPRINTF
      01006B63H   CODE     ---       _strcat
      01007669H   CODE     ---       _STRLEN
*DEL*:00000000H   CODE     ---       _UART_RS485_PutArray
      0100781FH   CODE     ---       _UART_RS485_PutChar
*DEL*:00000000H   CODE     ---       _UART_RS485_PutCRLF
      01007170H   CODE     ---       _UART_RS485_PutString
*DEL*:00000000H   CODE     ---       _UART_RS485_SendBreak
*DEL*:00000000H   CODE     ---       _UART_RS485_SetRxAddress1
*DEL*:00000000H   CODE     ---       _UART_RS485_SetRxAddress2
*DEL*:00000000H   CODE     ---       _UART_RS485_SetRxAddressMode
*DEL*:00000000H   CODE     ---       _UART_RS485_SetRxInterruptMode
*DEL*:00000000H   CODE     ---       _UART_RS485_SetTxAddressMode
*DEL*:00000000H   CODE     ---       _UART_RS485_SetTxInterruptMode
LX51 LINKER/LOCATER V4.64.0.0                                                         09/27/2016  11:48:46  PAGE 25


*DEL*:00000000H   CODE     ---       _UART_RS485_WriteControlRegister
*DEL*:00000000H   CODE     ---       _UART_RS485_WriteTxData
      0100793AH   CODE     ---       _WATCHDOG_COUNTER_SetInterruptMode
*DEL*:00000000H   CODE     ---       _WATCHDOG_COUNTER_WriteControlRegister
      01007520H   CODE     ---       _WATCHDOG_COUNTER_WriteCounter
      01007803H   CODE     ---       _WATCHDOG_COUNTER_WritePeriod
      01007940H   CODE     ---       _WATCHDOG_ENABLER_Write
      01007946H   CODE     ---       _WATCHDOG_REFRESH_Write
      0100726EH   CODE     ---       _WriteControlRegister
*SFR* 000000D0H.6 DATA     BIT       AC
*SFR* 000000E0H   DATA     BYTE      ACC
      02000AF3H   XDATA    ---       Accel
      02000B5BH   XDATA    ---       ADC_buf
*SFR* 000000F0H   DATA     BYTE      B
      0100787EH   CODE     ---       Bootloadable_Load
      0200068EH   XDATA    ---       c_mem
*DEL*:00000000H   CODE     ---       calibration
*DEL*:00000000H   CODE     ---       Chip_Select_A_Read
*DEL*:00000000H   CODE     ---       Chip_Select_B_Read
      01007874H   CODE     ---       CLOCK_UART_GetDividerRegister
*DEL*:00000000H   CODE     ---       CLOCK_UART_GetModeRegister
      010078BAH   CODE     ---       CLOCK_UART_GetSourceRegister
*DEL*:00000000H   CODE     ---       CLOCK_UART_Start
*DEL*:00000000H   CODE     ---       CLOCK_UART_Stop
*DEL*:00000000H   CODE     ---       CLOCK_UART_StopBlock
      0100797AH   CODE     ---       cmd_activate
      0100797BH   CODE     ---       cmd_get_activate
*DEL*:00000000H   CODE     ---       cmd_get_curr_and_meas
      0100797CH   CODE     ---       cmd_get_currents
      0100797EH   CODE     ---       cmd_get_emg
      010078D2H   CODE     ---       cmd_get_imu_readings
      0100666FH   CODE     ---       cmd_get_imus_mode
      0100558FH   CODE     ---       cmd_get_imus_sfs
      0100797DH   CODE     ---       cmd_get_inputs
      010063D3H   CODE     ---       cmd_get_mag_param
      01007978H   CODE     ---       cmd_get_measurements
      01007385H   CODE     ---       cmd_get_n_imu
      0100767EH   CODE     ---       cmd_ping
      01007466H   CODE     ---       cmd_set_baudrate
      01005DEDH   CODE     ---       cmd_set_imu_mode
      01007979H   CODE     ---       cmd_set_inputs
      01007009H   CODE     ---       cmd_set_watchdog
      0100762AH   CODE     ---       cmd_store_params
      0100582DH   CODE     ---       commProcess
*SFR* 000000D0H.7 DATA     BIT       CY
      020010F9H   XDATA    DWORD     cydelay_32k_ms
      020010F4H   XDATA    DWORD     cydelay_freq_hz
      020010EFH   XDATA    DWORD     cydelay_freq_khz
      020010F3H   XDATA    BYTE      cydelay_freq_mhz
*DEL*:00000000H   CODE     ---       CyDisableInts
*DEL*:00000000H   CODE     ---       CyEEPROM_ReadRelease
*DEL*:00000000H   CODE     ---       CyEEPROM_ReadReserve
      0100723DH   CODE     ---       CyEEPROM_Start
*DEL*:00000000H   CODE     ---       CyEEPROM_Stop
      0100763FH   CODE     NEAR LAB  CyEnterCriticalSection
      01005CE2H   CODE     ---       cyfitter_cfg
*DEL*:00000000H   CODE     ---       CyFlash_Start
*DEL*:00000000H   CODE     ---       CyFlash_Stop
*DEL*:00000000H   CODE     ---       CyILO_Disable33K
*DEL*:00000000H   CODE     ---       CyILO_Enable33K
*DEL*:00000000H   CODE     ---       CyILO_Start100K
*DEL*:00000000H   CODE     ---       CyILO_Start1K
*DEL*:00000000H   CODE     ---       CyILO_Stop100K
*DEL*:00000000H   CODE     ---       CyILO_Stop1K
*DEL*:00000000H   CODE     ---       CyIMO_DisableDoubler
LX51 LINKER/LOCATER V4.64.0.0                                                         09/27/2016  11:48:46  PAGE 26


*DEL*:00000000H   CODE     ---       CyIMO_EnableDoubler
*DEL*:00000000H   CODE     ---       CyIMO_Stop
*DEL*:00000000H   CODE     ---       CyPLL_OUT_Stop
*DEL*:00000000H   CODE     ---       CyPmHibernate
*DEL*:00000000H   CODE     ---       CyPmOppsSet
*DEL*:00000000H   CODE     ---       CyPmRestoreClocks
*DEL*:00000000H   CODE     ---       CyPmSaveClocks
      020010F8H   XDATA    BYTE      CyResetStatus
      010075A2H   CODE     ---       CySetTemp
      010078CAH   CODE     ---       CySoftwareReset
      0100753CH   CODE     ---       CySpcGetAlgorithm
      010074E4H   CODE     ---       CySpcLock
      01007654H   CODE     ---       CySpcStart
*DEL*:00000000H   CODE     ---       CySpcStop
      0100785EH   CODE     ---       CySpcUnlock
*DEL*:00000000H   CODE     ---       CyVdHvAnalogDisable
*DEL*:00000000H   CODE     ---       CyVdHvAnalogEnable
*DEL*:00000000H   CODE     ---       CyVdLvAnalogDisable
*DEL*:00000000H   CODE     ---       CyVdLvDigitDisable
*DEL*:00000000H   CODE     ---       CyVdRealTimeStatus
*DEL*:00000000H   CODE     ---       CyWdtClear
*DEL*:00000000H   CODE     ---       CyXTAL_32KHZ_ReadStatus
*DEL*:00000000H   CODE     ---       CyXTAL_32KHZ_Start
*DEL*:00000000H   CODE     ---       CyXTAL_32KHZ_Stop
*DEL*:00000000H   CODE     ---       CyXTAL_DisableErrStatus
*DEL*:00000000H   CODE     ---       CyXTAL_DisableFaultRecovery
*DEL*:00000000H   CODE     ---       CyXTAL_EnableErrStatus
*DEL*:00000000H   CODE     ---       CyXTAL_EnableFaultRecovery
*DEL*:00000000H   CODE     ---       CyXTAL_ReadStatus
*DEL*:00000000H   CODE     ---       CyXTAL_Stop
      02000B93H   XDATA    BYTE      dev_pwm_limit
      020008C7H   XDATA    LONG      dev_tension
      02001100H   XDATA    ---       dieTemperature
*SFR* 00000083H   DATA     BYTE      DPH
*SFR* 00000085H   DATA     BYTE      DPH1
*SFR* 00000082H   DATA     BYTE      DPL
*SFR* 00000084H   DATA     BYTE      DPL1
*SFR* 00000086H   DATA     BYTE      DPS
*SFR* 00000093H   DATA     BYTE      DPX
*SFR* 00000095H   DATA     BYTE      DPX1
*SFR* 000000A8H.7 DATA     BIT       EA
      02000FE0H   XDATA    ---       EEPROM_ADDR
      010078E7H   CODE     ---       EEPROM_Enable
*DEL*:00000000H   CODE     ---       EEPROM_Query
      0100796AH   CODE     ---       EEPROM_Start
*DEL*:00000000H   CODE     ---       EEPROM_Stop
*DEL*:00000000H   CODE     ---       EEPROM_UpdateTemperature
*SFR* 000000D0H.5 DATA     BIT       F0
*SFR* 000000D0H.1 DATA     BIT       F1
*DEL*:00000000H   CODE     ---       FF_STATUS_InterruptDisable
*DEL*:00000000H   CODE     ---       FF_STATUS_InterruptEnable
      01007928H   CODE     ---       FF_STATUS_Read
*DEL*:00000000H   CODE     ---       FF_STATUS_ReadMask
      02000B91H   XDATA    INT       frsAccReg
      020006B1H   XDATA    INT       frsGyroReg
*DEL*:00000000H   CODE     ---       FTDI_ENABLE_REG_Read
      0100704AH   CODE     ---       function_scheduler
      020006B3H   XDATA    ---       g_imu
      02000984H   XDATA    ---       g_imuNew
      020006A8H   XDATA    ---       g_mem
      020008FEH   XDATA    ---       g_rx
      0200085DH   XDATA    ---       Gyro
*SFR* 000000A8H   DATA     BYTE      IE
      02000B5EH   XDATA    ---       IMU_conf
      02000697H   XDATA    ---       IMU_connected
LX51 LINKER/LOCATER V4.64.0.0                                                         09/27/2016  11:48:46  PAGE 27


      02000AEEH   XDATA    BYTE      imu_send_flag
      02000B59H   XDATA    INT       imus_data_size
      0100713BH   CODE     ---       ImusReset
*DEL*:00000000H   CODE     ---       infoSend
      01005EF1H   CODE     ---       InitIMU
      010051E4H   CODE     ---       InitIMUgeneral
      01005FECH   CODE     ---       InitIMUMagCal
      00000021H.4 BIT      BIT       interrupt_flag
      01005AA1H   CODE     ---       interrupt_manager
*DEL*:00000000H   CODE     ---       isr_imu_ClearPending
      01007903H   CODE     ---       isr_imu_Disable
      010078FCH   CODE     ---       isr_imu_Enable
*DEL*:00000000H   CODE     ---       isr_imu_GetPriority
*DEL*:00000000H   CODE     ---       isr_imu_GetState
*DEL*:00000000H   CODE     ---       isr_imu_GetVector
      010040CEH   CODE     ---       isr_imu_Interrupt
*DEL*:00000000H   CODE     ---       isr_imu_SetPending
      01007705H   CODE     ---       isr_imu_Start
      0100796EH   CODE     ---       isr_imu_Stop
*DEL*:00000000H   CODE     ---       ISR_RS485_RX_ClearPending
      010078E0H   CODE     ---       ISR_RS485_RX_Disable
      010078D9H   CODE     ---       ISR_RS485_RX_Enable
      01007972H   CODE     ---       ISR_RS485_RX_ExInterrupt
*DEL*:00000000H   CODE     ---       ISR_RS485_RX_GetPriority
*DEL*:00000000H   CODE     ---       ISR_RS485_RX_GetState
*DEL*:00000000H   CODE     ---       ISR_RS485_RX_GetVector
      0100797FH   CODE     ---       ISR_RS485_RX_Interrupt
*DEL*:00000000H   CODE     ---       ISR_RS485_RX_SetPending
*DEL*:00000000H   CODE     ---       ISR_RS485_RX_Start
*DEL*:00000000H   CODE     ---       ISR_RS485_RX_Stop
*DEL*:00000000H   CODE     ---       ISR_WATCHDOG_ClearPending
      010078F5H   CODE     ---       ISR_WATCHDOG_Disable
      010078EEH   CODE     ---       ISR_WATCHDOG_Enable
*DEL*:00000000H   CODE     ---       ISR_WATCHDOG_GetPriority
*DEL*:00000000H   CODE     ---       ISR_WATCHDOG_GetState
*DEL*:00000000H   CODE     ---       ISR_WATCHDOG_GetVector
      01007329H   CODE     ---       ISR_WATCHDOG_Handler
      01007980H   CODE     ---       ISR_WATCHDOG_Interrupt
*DEL*:00000000H   CODE     ---       ISR_WATCHDOG_SetPending
*DEL*:00000000H   CODE     ---       ISR_WATCHDOG_Start
*DEL*:00000000H   CODE     ---       ISR_WATCHDOG_Stop
      020007F7H   XDATA    ---       Mag
      020008CBH   XDATA    ---       MagCal
      010065A4H   CODE     ---       main
      010072CDH   CODE     ---       memInit
      01006EE8H   CODE     ---       memRecall
      01006F7EH   CODE     ---       memRestore
*SFR* 000000EAH   DATA     BYTE      MXAX
      0100782CH   CODE     ---       MY_TIMER_ClearFIFO
      010078C2H   CODE     ---       MY_TIMER_Enable
      01007359H   CODE     ---       MY_TIMER_Init
      0200110AH   XDATA    BYTE      MY_TIMER_initVar
      01007892H   CODE     ---       MY_TIMER_ReadCapture
*DEL*:00000000H   CODE     ---       MY_TIMER_ReadControlRegister
      01007771H   CODE     ---       MY_TIMER_ReadCounter
*DEL*:00000000H   CODE     ---       MY_TIMER_ReadPeriod
      01007934H   CODE     ---       MY_TIMER_ReadStatusRegister
*DEL*:00000000H   CODE     ---       MY_TIMER_SoftwareCapture
      010076CCH   CODE     ---       MY_TIMER_Start
*DEL*:00000000H   CODE     ---       MY_TIMER_Stop
      020007F6H   XDATA    BYTE      N_IMU_Connected
*DEL*:00000000H   CODE     ---       Opto_Pin_Read
*DEL*:00000000H   CODE     ---       Opto_Pin_ReadDataReg
*SFR* 000000D0H.2 DATA     BIT       OV
*SFR* 000000D0H   DATA     BIT       P
LX51 LINKER/LOCATER V4.64.0.0                                                         09/27/2016  11:48:46  PAGE 28


*SFR* 000000A0H   DATA     BYTE      P2AX
      010075E9H   CODE     ---       PACER_TIMER_Enable
      0100708BH   CODE     ---       PACER_TIMER_Init
      02001109H   XDATA    BYTE      PACER_TIMER_initVar
*DEL*:00000000H   CODE     ---       PACER_TIMER_ReadCapture
*DEL*:00000000H   CODE     ---       PACER_TIMER_ReadControlRegister
*DEL*:00000000H   CODE     ---       PACER_TIMER_ReadCounter
*DEL*:00000000H   CODE     ---       PACER_TIMER_ReadPeriod
*DEL*:00000000H   CODE     ---       PACER_TIMER_ReadStatusRegister
*DEL*:00000000H   CODE     ---       PACER_TIMER_SoftwareCapture
      010076B9H   CODE     ---       PACER_TIMER_Start
*DEL*:00000000H   CODE     ---       PACER_TIMER_Stop
*SFR* 000000D0H   DATA     BYTE      PSW
      02000B5DH   XDATA    CHAR      pwm_sign
      02000983H   XDATA    BYTE      rateAcc
      02000AE9H   XDATA    BYTE      rateGyro
*DEL*:00000000H   CODE     ---       RESET_FF_Read
      00000021H.2 BIT      BIT       reset_last_value_flag
*SFR* 000000D0H.3 DATA     BIT       RS0
*SFR* 000000D0H.4 DATA     BIT       RS1
*DEL*:00000000H   CODE     ---       RS485_CTS_Read
      010070FFH   CODE     ---       setZeros
*SFR* 00000080H   DATA     BYTE      SFRPRT0DR
*SFR* 00000089H   DATA     BYTE      SFRPRT0PS
*SFR* 0000008AH   DATA     BYTE      SFRPRT0SEL
*SFR* 000000E8H   DATA     BYTE      SFRPRT12DR
*SFR* 000000E9H   DATA     BYTE      SFRPRT12PS
*SFR* 000000F2H   DATA     BYTE      SFRPRT12SEL
*SFR* 000000F8H   DATA     BYTE      SFRPRT15DR
*SFR* 000000F9H   DATA     BYTE      SFRPRT15PS
*SFR* 000000FAH   DATA     BYTE      SFRPRT15SEL
*SFR* 00000090H   DATA     BYTE      SFRPRT1DR
*SFR* 00000091H   DATA     BYTE      SFRPRT1PS
*SFR* 000000A2H   DATA     BYTE      SFRPRT1SEL
*SFR* 00000098H   DATA     BYTE      SFRPRT2DR
*SFR* 00000099H   DATA     BYTE      SFRPRT2PS
*SFR* 0000009AH   DATA     BYTE      SFRPRT2SEL
*SFR* 000000B0H   DATA     BYTE      SFRPRT3DR
*SFR* 000000B1H   DATA     BYTE      SFRPRT3PS
*SFR* 000000B2H   DATA     BYTE      SFRPRT3SEL
*SFR* 000000C0H   DATA     BYTE      SFRPRT4DR
*SFR* 000000C1H   DATA     BYTE      SFRPRT4PS
*SFR* 000000C2H   DATA     BYTE      SFRPRT4SEL
*SFR* 000000C8H   DATA     BYTE      SFRPRT5DR
*SFR* 000000C9H   DATA     BYTE      SFRPRT5PS
*SFR* 000000CAH   DATA     BYTE      SFRPRT5SEL
*SFR* 000000D8H   DATA     BYTE      SFRPRT6DR
*SFR* 000000D9H   DATA     BYTE      SFRPRT6PS
*SFR* 000000DAH   DATA     BYTE      SFRPRT6SEL
      02000AC7H   XDATA    ---       single_imu_size
*SFR* 00000081H   DATA     BYTE      SP
      0200110CH   XDATA    BYTE      SpcLockState
      01007486H   CODE     ---       SPI_IMU_ClearFIFO
      01007780H   CODE     ---       SPI_IMU_ClearRxBuffer
      0100773DH   CODE     ---       SPI_IMU_ClearTxBuffer
*DEL*:00000000H   CODE     ---       SPI_IMU_DisableInt
*DEL*:00000000H   CODE     ---       SPI_IMU_DisableRxInt
*DEL*:00000000H   CODE     ---       SPI_IMU_DisableTxInt
      010073FDH   CODE     ---       SPI_IMU_Enable
*DEL*:00000000H   CODE     ---       SPI_IMU_EnableInt
      01007982H   CODE     ---       SPI_IMU_EnableRxInt
      01007981H   CODE     ---       SPI_IMU_EnableTxInt
*DEL*:00000000H   CODE     ---       SPI_IMU_GetRxBufferSize
*DEL*:00000000H   CODE     ---       SPI_IMU_GetTxBufferSize
      01007589H   CODE     ---       SPI_IMU_Init
LX51 LINKER/LOCATER V4.64.0.0                                                         09/27/2016  11:48:46  PAGE 29


      02001108H   XDATA    BYTE      SPI_IMU_initVar
*DEL*:00000000H   CODE     ---       SPI_IMU_IntClock_GetDividerRegister
*DEL*:00000000H   CODE     ---       SPI_IMU_IntClock_GetModeRegister
*DEL*:00000000H   CODE     ---       SPI_IMU_IntClock_GetSourceRegister
      010077BCH   CODE     ---       SPI_IMU_IntClock_Start
*DEL*:00000000H   CODE     ---       SPI_IMU_IntClock_Stop
*DEL*:00000000H   CODE     ---       SPI_IMU_IntClock_StopBlock
      01007958H   CODE     ---       SPI_IMU_ReadRxData
      01007952H   CODE     ---       SPI_IMU_ReadRxStatus
      0100778FH   CODE     ---       SPI_IMU_ReadStatus
      0100794CH   CODE     ---       SPI_IMU_ReadTxStatus
      010076F2H   CODE     ---       SPI_IMU_Start
*DEL*:00000000H   CODE     ---       SPI_IMU_Stop
      02001106H   XDATA    BYTE      SPI_IMU_swStatusRx
      02001107H   XDATA    BYTE      SPI_IMU_swStatusTx
      01005BC8H   CODE     NEAR LAB  STARTUP1
      02000AEFH   XDATA    FLOAT     tau_feedback
      00000021H.5 BIT      BIT       tension_valid
      020008C3H   XDATA    DWORD     timer_value
      02000AEAH   XDATA    DWORD     timer_value0
      0100729EH   CODE     ---       UART_RS485_ClearRxBuffer
      0100772BH   CODE     ---       UART_RS485_ClearTxBuffer
      01007422H   CODE     ---       UART_RS485_Enable
      020010CDH   XDATA    BYTE      UART_RS485_errorStatus
*DEL*:00000000H   CODE     ---       UART_RS485_GetByte
      01006C97H   CODE     ---       UART_RS485_GetChar
      01006E99H   CODE     ---       UART_RS485_GetRxBufferSize
*DEL*:00000000H   CODE     ---       UART_RS485_GetTxBufferSize
      010071D8H   CODE     ---       UART_RS485_Init
      020010CBH   XDATA    BYTE      UART_RS485_initVar
*DEL*:00000000H   CODE     ---       UART_RS485_ReadControlRegister
*DEL*:00000000H   CODE     ---       UART_RS485_ReadRxData
      01007692H   CODE     ---       UART_RS485_ReadRxStatus
      0100790AH   CODE     ---       UART_RS485_ReadTxStatus
      020010AAH   XDATA    ---       UART_RS485_rxBuffer
      020010A8H   XDATA    BYTE      UART_RS485_rxBufferLoopDetect
      020010CCH   XDATA    BYTE      UART_RS485_rxBufferOverflow
      020010A9H   XDATA    BYTE      UART_RS485_rxBufferRead
      020010CAH   XDATA    BYTE      UART_RS485_rxBufferWrite
      010067F9H   CODE     ---       UART_RS485_RXISR
      010076A6H   CODE     ---       UART_RS485_Start
      01007444H   CODE     ---       UART_RS485_Stop
      010075FFH   CODE     ---       WATCHDOG_COUNTER_Enable
      010070C7H   CODE     ---       WATCHDOG_COUNTER_Init
      0200110BH   XDATA    BYTE      WATCHDOG_COUNTER_initVar
*DEL*:00000000H   CODE     ---       WATCHDOG_COUNTER_ReadCapture
*DEL*:00000000H   CODE     ---       WATCHDOG_COUNTER_ReadControlRegister
*DEL*:00000000H   CODE     ---       WATCHDOG_COUNTER_ReadCounter
*DEL*:00000000H   CODE     ---       WATCHDOG_COUNTER_ReadPeriod
*DEL*:00000000H   CODE     ---       WATCHDOG_COUNTER_ReadStatusRegister
      010076DFH   CODE     ---       WATCHDOG_COUNTER_Start
*DEL*:00000000H   CODE     ---       WATCHDOG_COUNTER_Stop
*DEL*:00000000H   CODE     ---       WATCHDOG_ENABLER_Read
      00000021H.3 BIT      BIT       watchdog_flag
*DEL*:00000000H   CODE     ---       WATCHDOG_REFRESH_Read



SYMBOL TABLE OF MODULE:  .\DP8051_Keil_951\Release\firmware.omf (COMMAND_PROCESSING)

      VALUE       REP       CLASS    TYPE      SYMBOL NAME
      ====================================================
      ---         MODULE    ---      ---       COMMAND_PROCESSING
      02000FE0H   PUBLIC    XDATA    ---       EEPROM_ADDR
      0100558FH   PUBLIC    CODE     ---       cmd_get_imus_sfs
LX51 LINKER/LOCATER V4.64.0.0                                                         09/27/2016  11:48:46  PAGE 30


      0100666FH   PUBLIC    CODE     ---       cmd_get_imus_mode
      01005DEDH   PUBLIC    CODE     ---       cmd_set_imu_mode
      010078D2H   PUBLIC    CODE     ---       cmd_get_imu_readings
      010063D3H   PUBLIC    CODE     ---       cmd_get_mag_param
      01007385H   PUBLIC    CODE     ---       cmd_get_n_imu
      0100797EH   PUBLIC    CODE     ---       cmd_get_emg
      0100762AH   PUBLIC    CODE     ---       cmd_store_params
      0100797DH   PUBLIC    CODE     ---       cmd_get_inputs
      01007009H   PUBLIC    CODE     ---       cmd_set_watchdog
      0100767EH   PUBLIC    CODE     ---       cmd_ping
      01007466H   PUBLIC    CODE     ---       cmd_set_baudrate
      0100797CH   PUBLIC    CODE     ---       cmd_get_currents
      0100797BH   PUBLIC    CODE     ---       cmd_get_activate
      0100797AH   PUBLIC    CODE     ---       cmd_activate
      01007979H   PUBLIC    CODE     ---       cmd_set_inputs
      01007978H   PUBLIC    CODE     ---       cmd_get_measurements
      010072CDH   PUBLIC    CODE     ---       memInit
      01006F7EH   PUBLIC    CODE     ---       memRestore
      01006EE8H   PUBLIC    CODE     ---       memRecall
      010068AAH   PUBLIC    CODE     ---       _memStore
      01007615H   PUBLIC    CODE     ---       _sendAcknowledgment
      0100720BH   PUBLIC    CODE     ---       _LCRChecksum
      01006957H   PUBLIC    CODE     ---       _commWrite
      010030CAH   PUBLIC    CODE     ---       _infoPrepare
      01004730H   PUBLIC    CODE     ---       _get_param_list
      010070FFH   PUBLIC    CODE     ---       setZeros
      01007557H   PUBLIC    CODE     ---       _infoGet
      0100582DH   PUBLIC    CODE     ---       commProcess
      000000CAH   SFRSYM    DATA     BYTE      SFRPRT5SEL
      000000DAH   SFRSYM    DATA     BYTE      SFRPRT6SEL
      000000D0H.6 SFRSYM    DATA     BIT       AC
      000000A8H.7 SFRSYM    DATA     BIT       EA
      000000A8H   SFRSYM    DATA     BYTE      IE
      00000085H   SFRSYM    DATA     BYTE      DPH1
      00000084H   SFRSYM    DATA     BYTE      DPL1
      000000D0H.7 SFRSYM    DATA     BIT       CY
      000000A0H   SFRSYM    DATA     BYTE      P2AX
      00000095H   SFRSYM    DATA     BYTE      DPX1
      00000081H   SFRSYM    DATA     BYTE      SP
      000000D0H.2 SFRSYM    DATA     BIT       OV
      00000080H   SFRSYM    DATA     BYTE      SFRPRT0DR
      00000090H   SFRSYM    DATA     BYTE      SFRPRT1DR
      000000F2H   SFRSYM    DATA     BYTE      SFRPRT12SEL
      00000098H   SFRSYM    DATA     BYTE      SFRPRT2DR
      000000B0H   SFRSYM    DATA     BYTE      SFRPRT3DR
      000000C0H   SFRSYM    DATA     BYTE      SFRPRT4DR
      000000FAH   SFRSYM    DATA     BYTE      SFRPRT15SEL
      000000C8H   SFRSYM    DATA     BYTE      SFRPRT5DR
      000000D8H   SFRSYM    DATA     BYTE      SFRPRT6DR
      00000089H   SFRSYM    DATA     BYTE      SFRPRT0PS
      00000091H   SFRSYM    DATA     BYTE      SFRPRT1PS
      00000099H   SFRSYM    DATA     BYTE      SFRPRT2PS
      000000B1H   SFRSYM    DATA     BYTE      SFRPRT3PS
      000000C1H   SFRSYM    DATA     BYTE      SFRPRT4PS
      000000C9H   SFRSYM    DATA     BYTE      SFRPRT5PS
      000000D9H   SFRSYM    DATA     BYTE      SFRPRT6PS
      000000EAH   SFRSYM    DATA     BYTE      MXAX
      000000F0H   SFRSYM    DATA     BYTE      B
      000000E0H   SFRSYM    DATA     BYTE      ACC
      000000D0H   SFRSYM    DATA     BIT       P
      000000D0H.3 SFRSYM    DATA     BIT       RS0
      000000D0H.4 SFRSYM    DATA     BIT       RS1
      00000083H   SFRSYM    DATA     BYTE      DPH
      000000E8H   SFRSYM    DATA     BYTE      SFRPRT12DR
      00000082H   SFRSYM    DATA     BYTE      DPL
LX51 LINKER/LOCATER V4.64.0.0                                                         09/27/2016  11:48:46  PAGE 31


      000000F8H   SFRSYM    DATA     BYTE      SFRPRT15DR
      00000086H   SFRSYM    DATA     BYTE      DPS
      000000E9H   SFRSYM    DATA     BYTE      SFRPRT12PS
      00000093H   SFRSYM    DATA     BYTE      DPX
      000000F9H   SFRSYM    DATA     BYTE      SFRPRT15PS
      000000D0H.5 SFRSYM    DATA     BIT       F0
      000000D0H.1 SFRSYM    DATA     BIT       F1
      0000008AH   SFRSYM    DATA     BYTE      SFRPRT0SEL
      000000D0H   SFRSYM    DATA     BYTE      PSW
      000000A2H   SFRSYM    DATA     BYTE      SFRPRT1SEL
      0000009AH   SFRSYM    DATA     BYTE      SFRPRT2SEL
      000000B2H   SFRSYM    DATA     BYTE      SFRPRT3SEL
      000000C2H   SFRSYM    DATA     BYTE      SFRPRT4SEL
      01003BF6H   SYMBOL    CODE     ---       _?ix1000
      01004093H   SYMBOL    CODE     ---       _?ix1010
      01003F7BH   SYMBOL    CODE     ---       _?ix1001
      01003F8AH   SYMBOL    CODE     ---       _?ix1002
      01003FACH   SYMBOL    CODE     ---       _?ix1003
      01003FC8H   SYMBOL    CODE     ---       _?ix1004
      01003FE4H   SYMBOL    CODE     ---       _?ix1005
      0100400BH   SYMBOL    CODE     ---       _?ix1006
      01004035H   SYMBOL    CODE     ---       _?ix1007
      0100404AH   SYMBOL    CODE     ---       _?ix1008
      01004061H   SYMBOL    CODE     ---       _?ix1009

      0100582DH   BLOCK     CODE     ---       LVL=0
      0100582DH   BLOCK     CODE     NEAR LAB  LVL=1
      0000000AH   SYMBOL    DATA     BYTE      rx_cmd
      ---         BLOCKEND  ---      ---       LVL=1
      0100582DH   LINE      CODE     ---       #39
      0100582DH   LINE      CODE     ---       #43
      01005833H   LINE      CODE     ---       #47
      0100585EH   LINE      CODE     ---       #49
      01005864H   LINE      CODE     ---       #51
      01005864H   LINE      CODE     ---       #54
      010058B5H   LINE      CODE     ---       #57
      010058B5H   LINE      CODE     ---       #58
      010058B8H   LINE      CODE     ---       #59
      010058B9H   LINE      CODE     ---       #63
      010058B9H   LINE      CODE     ---       #64
      010058BCH   LINE      CODE     ---       #65
      010058BDH   LINE      CODE     ---       #69
      010058BDH   LINE      CODE     ---       #70
      010058C0H   LINE      CODE     ---       #71
      010058C1H   LINE      CODE     ---       #75
      010058C1H   LINE      CODE     ---       #76
      010058C4H   LINE      CODE     ---       #77
      010058C5H   LINE      CODE     ---       #82
      010058C5H   LINE      CODE     ---       #83
      010058C8H   LINE      CODE     ---       #84
      010058C9H   LINE      CODE     ---       #88
      010058C9H   LINE      CODE     ---       #89
      010058CCH   LINE      CODE     ---       #90
      010058CDH   LINE      CODE     ---       #94
      010058CDH   LINE      CODE     ---       #95
      010058D0H   LINE      CODE     ---       #96
      010058D1H   LINE      CODE     ---       #100
      010058D1H   LINE      CODE     ---       #101
      010058D4H   LINE      CODE     ---       #102
      010058D5H   LINE      CODE     ---       #106
      010058D5H   LINE      CODE     ---       #107
      010058D8H   LINE      CODE     ---       #108
      010058D9H   LINE      CODE     ---       #112
      010058D9H   LINE      CODE     ---       #113
      010058E4H   LINE      CODE     ---       #114
LX51 LINKER/LOCATER V4.64.0.0                                                         09/27/2016  11:48:46  PAGE 32


      010058E5H   LINE      CODE     ---       #118
      010058E5H   LINE      CODE     ---       #119
      010058E8H   LINE      CODE     ---       #120
      010058E9H   LINE      CODE     ---       #124
      010058E9H   LINE      CODE     ---       #125
      010058F4H   LINE      CODE     ---       #126
      010058F5H   LINE      CODE     ---       #130
      010058F5H   LINE      CODE     ---       #131
      010058F8H   LINE      CODE     ---       #132
      010058F9H   LINE      CODE     ---       #136
      010058F9H   LINE      CODE     ---       #137
      010058FCH   LINE      CODE     ---       #138
      010058FDH   LINE      CODE     ---       #142
      010058FDH   LINE      CODE     ---       #143
      01005907H   LINE      CODE     ---       #144
      0100590DH   LINE      CODE     ---       #146
      01005912H   LINE      CODE     ---       #147
      01005913H   LINE      CODE     ---       #151
      01005913H   LINE      CODE     ---       #152
      01005919H   LINE      CODE     ---       #153
      0100591FH   LINE      CODE     ---       #155
      01005924H   LINE      CODE     ---       #156
      01005925H   LINE      CODE     ---       #160
      01005925H   LINE      CODE     ---       #161
      0100592BH   LINE      CODE     ---       #162
      01005931H   LINE      CODE     ---       #164
      01005936H   LINE      CODE     ---       #165
      01005937H   LINE      CODE     ---       #169
      01005937H   LINE      CODE     ---       #171
      0100593CH   LINE      CODE     ---       #172
      01005946H   LINE      CODE     ---       #173
      0100594BH   LINE      CODE     ---       #174
      01005955H   LINE      CODE     ---       #175
      01005958H   LINE      CODE     ---       #176
      01005959H   LINE      CODE     ---       #180
      01005959H   LINE      CODE     ---       #181
      01005959H   LINE      CODE     ---       #185
      01005959H   LINE      CODE     ---       #186
      0100595CH   LINE      CODE     ---       #187
      0100595DH   LINE      CODE     ---       #191
      0100595DH   LINE      CODE     ---       #192
      01005960H   LINE      CODE     ---       #193
      01005961H   LINE      CODE     ---       #197
      01005961H   LINE      CODE     ---       #198
      01005964H   LINE      CODE     ---       #199
      01005965H   LINE      CODE     ---       #203
      01005965H   LINE      CODE     ---       #204
      01005968H   LINE      CODE     ---       #205
      01005969H   LINE      CODE     ---       #209
      01005969H   LINE      CODE     ---       #210
      0100596CH   LINE      CODE     ---       #211
      0100596DH   LINE      CODE     ---       #215
      0100596DH   LINE      CODE     ---       #216
      01005970H   LINE      CODE     ---       #217
      01005970H   LINE      CODE     ---       #220
      01005970H   LINE      CODE     ---       #221
      01005970H   LINE      CODE     ---       #223
      01005970H   LINE      CODE     ---       #225
      ---         BLOCKEND  ---      ---       LVL=0

      01007557H   BLOCK     CODE     ---       LVL=0
      00000006H   SYMBOL    DATA     WORD      info_type
      01007557H   BLOCK     CODE     NEAR LAB  LVL=1
      02000B94H   SYMBOL    XDATA    ---       packet_string
      ---         BLOCKEND  ---      ---       LVL=1
LX51 LINKER/LOCATER V4.64.0.0                                                         09/27/2016  11:48:46  PAGE 33


      01007557H   LINE      CODE     ---       #243
      01007557H   LINE      CODE     ---       #248
      0100755DH   LINE      CODE     ---       #249
      0100755DH   LINE      CODE     ---       #250
      01007566H   LINE      CODE     ---       #251
      0100756FH   LINE      CODE     ---       #252
      0100756FH   LINE      CODE     ---       #254
      0100756FH   LINE      CODE     ---       #255
      0100756FH   LINE      CODE     ---       #256
      0100756FH   LINE      CODE     ---       #257
      ---         BLOCKEND  ---      ---       LVL=0

      010070FFH   BLOCK     CODE     ---       LVL=0
      010070FFH   LINE      CODE     ---       #263
      010070FFH   LINE      CODE     ---       #264
      010070FFH   LINE      CODE     ---       #266
      ---         BLOCKEND  ---      ---       LVL=0

      01004730H   BLOCK     CODE     ---       LVL=0
      02000005H   SYMBOL    XDATA    WORD      index
      01004738H   BLOCK     CODE     NEAR LAB  LVL=1
      02000007H   SYMBOL    XDATA    ---       packet_data
      0200038CH   SYMBOL    XDATA    WORD      packet_lenght
      0000000BH   SYMBOL    DATA     WORD      i
      0200038EH   SYMBOL    XDATA    LONG      aux_int
      02000392H   SYMBOL    XDATA    ---       id_str
      020003A1H   SYMBOL    XDATA    ---       acc_unity_str
      020003C3H   SYMBOL    XDATA    ---       gyro_unity_str
      020003DFH   SYMBOL    XDATA    ---       mag_unity_str
      020003FBH   SYMBOL    XDATA    ---       acc_fs_str
      02000422H   SYMBOL    XDATA    ---       gyro_fs_str
      0200044CH   SYMBOL    XDATA    ---       acc_unity_menu
      02000461H   SYMBOL    XDATA    ---       gyro_unity_menu
      02000478H   SYMBOL    XDATA    ---       acc_fs_menu
      020004AAH   SYMBOL    XDATA    ---       gyro_fs_menu
      0000000DH   SYMBOL    DATA     BYTE      id_str_len
      0000000EH   SYMBOL    DATA     BYTE      acc_unity_str_len
      0000000FH   SYMBOL    DATA     BYTE      gyro_unity_str_len
      00000010H   SYMBOL    DATA     BYTE      mag_unity_str_len
      00000011H   SYMBOL    DATA     BYTE      acc_fs_str_len
      00000012H   SYMBOL    DATA     BYTE      gyro_fs_str_len
      00000013H   SYMBOL    DATA     BYTE      acc_unity_menu_len
      00000014H   SYMBOL    DATA     BYTE      gyro_unity_menu_len
      00000015H   SYMBOL    DATA     BYTE      acc_fs_menu_len
      00000016H   SYMBOL    DATA     BYTE      gyro_fs_menu_len
      ---         BLOCKEND  ---      ---       LVL=1
      01004730H   LINE      CODE     ---       #272
      01004738H   LINE      CODE     ---       #273
      01004738H   LINE      CODE     ---       #275
      0100474BH   LINE      CODE     ---       #276
      01004755H   LINE      CODE     ---       #283
      01004768H   LINE      CODE     ---       #284
      0100477BH   LINE      CODE     ---       #285
      0100478EH   LINE      CODE     ---       #286
      010047A1H   LINE      CODE     ---       #287
      010047B4H   LINE      CODE     ---       #288
      010047C7H   LINE      CODE     ---       #291
      010047DAH   LINE      CODE     ---       #292
      010047EDH   LINE      CODE     ---       #293
      01004800H   LINE      CODE     ---       #294
      01004813H   LINE      CODE     ---       #297
      0100481EH   LINE      CODE     ---       #298
      01004829H   LINE      CODE     ---       #299
      01004834H   LINE      CODE     ---       #300
      0100483FH   LINE      CODE     ---       #301
LX51 LINKER/LOCATER V4.64.0.0                                                         09/27/2016  11:48:46  PAGE 34


      0100484AH   LINE      CODE     ---       #302
      01004855H   LINE      CODE     ---       #303
      01004860H   LINE      CODE     ---       #304
      0100486BH   LINE      CODE     ---       #305
      01004876H   LINE      CODE     ---       #306
      01004881H   LINE      CODE     ---       #308
      01004887H   LINE      CODE     ---       #309
      0100488BH   LINE      CODE     ---       #311
      010048BEH   LINE      CODE     ---       #312
      010048BEH   LINE      CODE     ---       #315
      010048C4H   LINE      CODE     ---       #316
      010048C7H   LINE      CODE     ---       #317
      010048CFH   LINE      CODE     ---       #318
      010048DBH   LINE      CODE     ---       #319
      01004907H   LINE      CODE     ---       #323
      0100490CH   LINE      CODE     ---       #324
      0100490FH   LINE      CODE     ---       #325
      01004917H   LINE      CODE     ---       #326
      0100491DH   LINE      CODE     ---       #327
      0100491DH   LINE      CODE     ---       #328
      01004934H   LINE      CODE     ---       #329
      01004937H   LINE      CODE     ---       #330
      01004939H   LINE      CODE     ---       #331
      01004939H   LINE      CODE     ---       #332
      01004950H   LINE      CODE     ---       #333
      01004953H   LINE      CODE     ---       #334
      01004953H   LINE      CODE     ---       #335
      01004953H   LINE      CODE     ---       #336
      0100495FH   LINE      CODE     ---       #337
      0100498BH   LINE      CODE     ---       #339
      01004999H   LINE      CODE     ---       #343
      0100499EH   LINE      CODE     ---       #344
      010049A1H   LINE      CODE     ---       #345
      010049A9H   LINE      CODE     ---       #346
      010049AFH   LINE      CODE     ---       #347
      010049AFH   LINE      CODE     ---       #348
      010049C6H   LINE      CODE     ---       #349
      010049C9H   LINE      CODE     ---       #350
      010049CBH   LINE      CODE     ---       #351
      010049CBH   LINE      CODE     ---       #352
      010049E2H   LINE      CODE     ---       #353
      010049E5H   LINE      CODE     ---       #354
      010049E5H   LINE      CODE     ---       #355
      010049E5H   LINE      CODE     ---       #356
      010049F1H   LINE      CODE     ---       #357
      01004A1DH   LINE      CODE     ---       #359
      01004A2BH   LINE      CODE     ---       #363
      01004A30H   LINE      CODE     ---       #364
      01004A33H   LINE      CODE     ---       #365
      01004A3BH   LINE      CODE     ---       #366
      01004A3DH   LINE      CODE     ---       #367
      01004A3DH   LINE      CODE     ---       #368
      01004A54H   LINE      CODE     ---       #369
      01004A57H   LINE      CODE     ---       #370
      01004A57H   LINE      CODE     ---       #371
      01004A57H   LINE      CODE     ---       #372
      01004A63H   LINE      CODE     ---       #373
      01004A8FH   LINE      CODE     ---       #377
      01004A94H   LINE      CODE     ---       #378
      01004A97H   LINE      CODE     ---       #379
      01004A9FH   LINE      CODE     ---       #380
      01004AACH   LINE      CODE     ---       #381
      01004AACH   LINE      CODE     ---       #382
      01004AC3H   LINE      CODE     ---       #383
      01004AC6H   LINE      CODE     ---       #384
LX51 LINKER/LOCATER V4.64.0.0                                                         09/27/2016  11:48:46  PAGE 35


      01004AC8H   LINE      CODE     ---       #385
      01004AC8H   LINE      CODE     ---       #386
      01004ADFH   LINE      CODE     ---       #387
      01004AE2H   LINE      CODE     ---       #388
      01004AE4H   LINE      CODE     ---       #389
      01004AE4H   LINE      CODE     ---       #390
      01004AFBH   LINE      CODE     ---       #391
      01004AFEH   LINE      CODE     ---       #392
      01004B00H   LINE      CODE     ---       #393
      01004B00H   LINE      CODE     ---       #394
      01004B17H   LINE      CODE     ---       #395
      01004B1AH   LINE      CODE     ---       #396
      01004B1AH   LINE      CODE     ---       #397
      01004B1AH   LINE      CODE     ---       #398
      01004B26H   LINE      CODE     ---       #399
      01004B52H   LINE      CODE     ---       #401
      01004B60H   LINE      CODE     ---       #405
      01004B65H   LINE      CODE     ---       #406
      01004B68H   LINE      CODE     ---       #407
      01004B70H   LINE      CODE     ---       #408
      01004B7AH   LINE      CODE     ---       #409
      01004B7AH   LINE      CODE     ---       #410
      01004B91H   LINE      CODE     ---       #411
      01004B94H   LINE      CODE     ---       #412
      01004B96H   LINE      CODE     ---       #413
      01004B96H   LINE      CODE     ---       #414
      01004BADH   LINE      CODE     ---       #415
      01004BB0H   LINE      CODE     ---       #416
      01004BB2H   LINE      CODE     ---       #417
      01004BB2H   LINE      CODE     ---       #418
      01004BC9H   LINE      CODE     ---       #419
      01004BCCH   LINE      CODE     ---       #420
      01004BCCH   LINE      CODE     ---       #421
      01004BCCH   LINE      CODE     ---       #422
      01004BD8H   LINE      CODE     ---       #423
      01004C04H   LINE      CODE     ---       #425
      01004C12H   LINE      CODE     ---       #429
      01004C1EH   LINE      CODE     ---       #430
      01004C4AH   LINE      CODE     ---       #432
      01004C56H   LINE      CODE     ---       #433
      01004C82H   LINE      CODE     ---       #435
      01004C8EH   LINE      CODE     ---       #436
      01004CBAH   LINE      CODE     ---       #438
      01004CC6H   LINE      CODE     ---       #439
      01004CF2H   LINE      CODE     ---       #441
      01004D16H   LINE      CODE     ---       #442
      01004D1FH   LINE      CODE     ---       #443
      01004D22H   LINE      CODE     ---       #444
      01004D23H   LINE      CODE     ---       #447
      01004D23H   LINE      CODE     ---       #448
      01004D2BH   LINE      CODE     ---       #449
      01004D2CH   LINE      CODE     ---       #452
      01004D2CH   LINE      CODE     ---       #453
      01004D34H   LINE      CODE     ---       #454
      01004D35H   LINE      CODE     ---       #457
      01004D35H   LINE      CODE     ---       #458
      01004D3DH   LINE      CODE     ---       #459
      01004D3EH   LINE      CODE     ---       #462
      01004D3EH   LINE      CODE     ---       #463
      01004D46H   LINE      CODE     ---       #465
      01004D48H   LINE      CODE     ---       #466
      01004D49H   LINE      CODE     ---       #469
      01004D49H   LINE      CODE     ---       #470
      01004D51H   LINE      CODE     ---       #472
      01004D54H   LINE      CODE     ---       #473
LX51 LINKER/LOCATER V4.64.0.0                                                         09/27/2016  11:48:46  PAGE 36


      01004D55H   LINE      CODE     ---       #476
      01004D55H   LINE      CODE     ---       #477
      01004D5DH   LINE      CODE     ---       #479
      01004D60H   LINE      CODE     ---       #480
      01004D60H   LINE      CODE     ---       #482
      01004D60H   LINE      CODE     ---       #483
      ---         BLOCKEND  ---      ---       LVL=0

      010030CAH   BLOCK     CODE     ---       LVL=0
      02000005H   SYMBOL    XDATA    ---       info_string
      010030D5H   BLOCK     CODE     NEAR LAB  LVL=1
      02000008H   SYMBOL    XDATA    INT       i
      010030E0H   BLOCK     CODE     NEAR LAB  LVL=2
      0200000AH   SYMBOL    XDATA    ---       str
      ---         BLOCKEND  ---      ---       LVL=2
      ---         BLOCKEND  ---      ---       LVL=1
      010030CAH   LINE      CODE     ---       #490
      010030D5H   LINE      CODE     ---       #491
      010030D5H   LINE      CODE     ---       #493
      010030E0H   LINE      CODE     ---       #495
      010030F8H   LINE      CODE     ---       #496
      01003114H   LINE      CODE     ---       #497
      01003130H   LINE      CODE     ---       #498
      0100314CH   LINE      CODE     ---       #499
      01003168H   LINE      CODE     ---       #501
      01003184H   LINE      CODE     ---       #502
      010031A8H   LINE      CODE     ---       #503
      010031C4H   LINE      CODE     ---       #505
      010031E8H   LINE      CODE     ---       #506
      01003204H   LINE      CODE     ---       #508
      01003220H   LINE      CODE     ---       #510
      0100323CH   LINE      CODE     ---       #511
      01003258H   LINE      CODE     ---       #512
      01003262H   LINE      CODE     ---       #513
      01003262H   LINE      CODE     ---       #514
      0100327EH   LINE      CODE     ---       #515
      01003280H   LINE      CODE     ---       #516
      01003280H   LINE      CODE     ---       #517
      0100329CH   LINE      CODE     ---       #518
      0100329CH   LINE      CODE     ---       #519
      0100329CH   LINE      CODE     ---       #521
      010032B8H   LINE      CODE     ---       #522
      010032C2H   LINE      CODE     ---       #523
      010032C2H   LINE      CODE     ---       #524
      010032DEH   LINE      CODE     ---       #525
      010032E0H   LINE      CODE     ---       #526
      010032E0H   LINE      CODE     ---       #527
      010032FCH   LINE      CODE     ---       #528
      010032FCH   LINE      CODE     ---       #529
      010032FCH   LINE      CODE     ---       #531
      01003318H   LINE      CODE     ---       #532
      0100331EH   LINE      CODE     ---       #533
      0100331EH   LINE      CODE     ---       #534
      0100333AH   LINE      CODE     ---       #535
      0100333AH   LINE      CODE     ---       #536
      0100333AH   LINE      CODE     ---       #538
      01003356H   LINE      CODE     ---       #539
      01003367H   LINE      CODE     ---       #540
      01003367H   LINE      CODE     ---       #541
      01003383H   LINE      CODE     ---       #542
      01003385H   LINE      CODE     ---       #543
      01003385H   LINE      CODE     ---       #544
      010033A1H   LINE      CODE     ---       #545
      010033A3H   LINE      CODE     ---       #546
      010033A3H   LINE      CODE     ---       #547
LX51 LINKER/LOCATER V4.64.0.0                                                         09/27/2016  11:48:46  PAGE 37


      010033BFH   LINE      CODE     ---       #548
      010033C1H   LINE      CODE     ---       #549
      010033C1H   LINE      CODE     ---       #550
      010033DDH   LINE      CODE     ---       #551
      010033DDH   LINE      CODE     ---       #552
      010033DDH   LINE      CODE     ---       #554
      010033F9H   LINE      CODE     ---       #555
      01003407H   LINE      CODE     ---       #556
      01003407H   LINE      CODE     ---       #557
      01003423H   LINE      CODE     ---       #558
      01003425H   LINE      CODE     ---       #559
      01003425H   LINE      CODE     ---       #560
      01003441H   LINE      CODE     ---       #561
      01003443H   LINE      CODE     ---       #562
      01003443H   LINE      CODE     ---       #563
      0100345FH   LINE      CODE     ---       #564
      0100345FH   LINE      CODE     ---       #565
      0100345FH   LINE      CODE     ---       #566
      0100347BH   LINE      CODE     ---       #568
      01003497H   LINE      CODE     ---       #569
      010034B8H   LINE      CODE     ---       #570
      010034F2H   LINE      CODE     ---       #571
      0100350EH   LINE      CODE     ---       #573
      01003525H   LINE      CODE     ---       #574
      01003546H   LINE      CODE     ---       #575
      0100355FH   LINE      CODE     ---       #577
      01003576H   LINE      CODE     ---       #578
      0100358DH   LINE      CODE     ---       #579
      010035AEH   LINE      CODE     ---       #580
      010035C7H   LINE      CODE     ---       #582
      010035DEH   LINE      CODE     ---       #583
      010035F5H   LINE      CODE     ---       #584
      01003616H   LINE      CODE     ---       #585
      0100362FH   LINE      CODE     ---       #587
      01003646H   LINE      CODE     ---       #589
      01003662H   LINE      CODE     ---       #590
      01003673H   LINE      CODE     ---       #592
      0100368FH   LINE      CODE     ---       #594
      010036ABH   LINE      CODE     ---       #595
      010036CCH   LINE      CODE     ---       #596
      01003706H   LINE      CODE     ---       #597
      01003722H   LINE      CODE     ---       #599
      01003747H   LINE      CODE     ---       #600
      010037C0H   LINE      CODE     ---       #601
      010037DCH   LINE      CODE     ---       #602
      010037DCH   LINE      CODE     ---       #604
      01003801H   LINE      CODE     ---       #605
      0100387AH   LINE      CODE     ---       #606
      01003896H   LINE      CODE     ---       #607
      01003896H   LINE      CODE     ---       #609
      010038BBH   LINE      CODE     ---       #610
      01003934H   LINE      CODE     ---       #611
      01003950H   LINE      CODE     ---       #612
      01003950H   LINE      CODE     ---       #614
      01003961H   LINE      CODE     ---       #616
      0100397DH   LINE      CODE     ---       #617
      0100397DH   LINE      CODE     ---       #618
      ---         BLOCKEND  ---      ---       LVL=0

      01006957H   BLOCK     CODE     ---       LVL=0
      02000688H   SYMBOL    XDATA    ---       packet_data
      0200068BH   SYMBOL    XDATA    WORD      packet_lenght
      01006968H   BLOCK     CODE     NEAR LAB  LVL=1
      00000019H   SYMBOL    DATA     WORD      index
      ---         BLOCKEND  ---      ---       LVL=1
LX51 LINKER/LOCATER V4.64.0.0                                                         09/27/2016  11:48:46  PAGE 38


      01006957H   LINE      CODE     ---       #624
      01006968H   LINE      CODE     ---       #625
      01006968H   LINE      CODE     ---       #629
      0100696DH   LINE      CODE     ---       #630
      01006972H   LINE      CODE     ---       #633
      0100697AH   LINE      CODE     ---       #636
      01006984H   LINE      CODE     ---       #639
      01006998H   LINE      CODE     ---       #640
      010069BAH   LINE      CODE     ---       #642
      010069BFH   LINE      CODE     ---       #644
      010069D9H   LINE      CODE     ---       #646
      010069DEH   LINE      CODE     ---       #647
      010069E3H   LINE      CODE     ---       #648
      ---         BLOCKEND  ---      ---       LVL=0

      0100720BH   BLOCK     CODE     ---       LVL=0
      02000688H   SYMBOL    XDATA    ---       data_array
      00000005H   SYMBOL    DATA     BYTE      data_length
      01007216H   BLOCK     CODE     NEAR LAB  LVL=1
      00000019H   SYMBOL    DATA     BYTE      i
      0000001AH   SYMBOL    DATA     BYTE      checksum
      ---         BLOCKEND  ---      ---       LVL=1
      0100720BH   LINE      CODE     ---       #657
      01007216H   LINE      CODE     ---       #660
      01007219H   LINE      CODE     ---       #662
      01007221H   LINE      CODE     ---       #663
      0100723AH   LINE      CODE     ---       #665
      0100723CH   LINE      CODE     ---       #666
      ---         BLOCKEND  ---      ---       LVL=0

      01007615H   BLOCK     CODE     ---       LVL=0
      00000007H   SYMBOL    DATA     BYTE      value
      01007615H   BLOCK     CODE     NEAR LAB  LVL=1
      00000004H   SYMBOL    DATA     INT       packet_lenght
      02000005H   SYMBOL    XDATA    ---       packet_data
      ---         BLOCKEND  ---      ---       LVL=1
      01007615H   LINE      CODE     ---       #672
      01007615H   LINE      CODE     ---       #673
      01007619H   LINE      CODE     ---       #676
      0100761EH   LINE      CODE     ---       #677
      01007620H   LINE      CODE     ---       #679
      01007629H   LINE      CODE     ---       #680
      ---         BLOCKEND  ---      ---       LVL=0

      010068AAH   BLOCK     CODE     ---       LVL=0
      02000006H   SYMBOL    XDATA    INT       displacement
      010068B2H   BLOCK     CODE     NEAR LAB  LVL=1
      02000008H   SYMBOL    XDATA    INT       i
      00000007H   SYMBOL    DATA     BYTE      writeStatus
      0200000AH   SYMBOL    XDATA    INT       pages
      0200000CH   SYMBOL    XDATA    BYTE      ret_val
      ---         BLOCKEND  ---      ---       LVL=1
      010068AAH   LINE      CODE     ---       #691
      010068B2H   LINE      CODE     ---       #692
      010068B2H   LINE      CODE     ---       #696
      010068B8H   LINE      CODE     ---       #699
      010068BBH   LINE      CODE     ---       #703
      010068BEH   LINE      CODE     ---       #705
      010068D1H   LINE      CODE     ---       #707
      010068D9H   LINE      CODE     ---       #709
      010068FCH   LINE      CODE     ---       #710
      01006921H   LINE      CODE     ---       #711
      01006924H   LINE      CODE     ---       #712
      01006929H   LINE      CODE     ---       #713
      0100692BH   LINE      CODE     ---       #714
LX51 LINKER/LOCATER V4.64.0.0                                                         09/27/2016  11:48:46  PAGE 39


      0100692BH   LINE      CODE     ---       #715
      0100693BH   LINE      CODE     ---       #717
      0100694EH   LINE      CODE     ---       #720
      01006951H   LINE      CODE     ---       #722
      01006956H   LINE      CODE     ---       #723
      ---         BLOCKEND  ---      ---       LVL=0

      01006EE8H   BLOCK     CODE     ---       LVL=0
      01006EE8H   BLOCK     CODE     NEAR LAB  LVL=1
      00000006H   SYMBOL    DATA     WORD      i
      ---         BLOCKEND  ---      ---       LVL=1
      01006EE8H   LINE      CODE     ---       #734
      01006EE8H   LINE      CODE     ---       #735
      01006EE8H   LINE      CODE     ---       #738
      01006EF4H   LINE      CODE     ---       #739
      01006F10H   LINE      CODE     ---       #740
      01006F17H   LINE      CODE     ---       #743
      01006F1DH   LINE      CODE     ---       #744
      01006F20H   LINE      CODE     ---       #745
      01006F21H   LINE      CODE     ---       #746
      01006F34H   LINE      CODE     ---       #747
      01006F34H   LINE      CODE     ---       #748
      ---         BLOCKEND  ---      ---       LVL=0

      01006F7EH   BLOCK     CODE     ---       LVL=0
      01006F7EH   BLOCK     CODE     NEAR LAB  LVL=1
      00000006H   SYMBOL    DATA     WORD      i
      ---         BLOCKEND  ---      ---       LVL=1
      01006F7EH   LINE      CODE     ---       #759
      01006F7EH   LINE      CODE     ---       #762
      01006F8AH   LINE      CODE     ---       #763
      01006FADH   LINE      CODE     ---       #764
      01006FB4H   LINE      CODE     ---       #767
      01006FBAH   LINE      CODE     ---       #768
      01006FBEH   LINE      CODE     ---       #769
      01006FBEH   LINE      CODE     ---       #770
      01006FC4H   LINE      CODE     ---       #771
      01006FC4H   LINE      CODE     ---       #772
      ---         BLOCKEND  ---      ---       LVL=0

      010072CDH   BLOCK     CODE     ---       LVL=0
      010072CDH   BLOCK     CODE     NEAR LAB  LVL=1
      02000005H   SYMBOL    XDATA    BYTE      i
      ---         BLOCKEND  ---      ---       LVL=1
      010072CDH   LINE      CODE     ---       #782
      010072CDH   LINE      CODE     ---       #783
      010072CDH   LINE      CODE     ---       #787
      010072D3H   LINE      CODE     ---       #790
      010072D8H   LINE      CODE     ---       #792
      010072DAH   LINE      CODE     ---       #794
      010072DCH   LINE      CODE     ---       #797
      010072E1H   LINE      CODE     ---       #800
      010072FAH   LINE      CODE     ---       #801
      ---         BLOCKEND  ---      ---       LVL=0

      01007978H   BLOCK     CODE     ---       LVL=0
      01007978H   LINE      CODE     ---       #810
      01007978H   LINE      CODE     ---       #812
      ---         BLOCKEND  ---      ---       LVL=0

      01007979H   BLOCK     CODE     ---       LVL=0
      01007979H   LINE      CODE     ---       #814
      01007979H   LINE      CODE     ---       #816
      ---         BLOCKEND  ---      ---       LVL=0

LX51 LINKER/LOCATER V4.64.0.0                                                         09/27/2016  11:48:46  PAGE 40


      0100797AH   BLOCK     CODE     ---       LVL=0
      0100797AH   LINE      CODE     ---       #818
      0100797AH   LINE      CODE     ---       #820
      ---         BLOCKEND  ---      ---       LVL=0

      0100797BH   BLOCK     CODE     ---       LVL=0
      0100797BH   LINE      CODE     ---       #822
      0100797BH   LINE      CODE     ---       #824
      ---         BLOCKEND  ---      ---       LVL=0

      0100797CH   BLOCK     CODE     ---       LVL=0
      0100797CH   LINE      CODE     ---       #830
      0100797CH   LINE      CODE     ---       #832
      ---         BLOCKEND  ---      ---       LVL=0

      01007466H   BLOCK     CODE     ---       LVL=0
      01007466H   LINE      CODE     ---       #834
      01007466H   LINE      CODE     ---       #837
      0100746EH   LINE      CODE     ---       #839
      01007472H   LINE      CODE     ---       #840
      01007472H   LINE      CODE     ---       #841
      0100747BH   LINE      CODE     ---       #842
      0100747CH   LINE      CODE     ---       #843
      0100747CH   LINE      CODE     ---       #844
      01007485H   LINE      CODE     ---       #845
      01007485H   LINE      CODE     ---       #846
      ---         BLOCKEND  ---      ---       LVL=0

      0100767EH   BLOCK     CODE     ---       LVL=0
      0100767EH   BLOCK     CODE     NEAR LAB  LVL=1
      02000005H   SYMBOL    XDATA    ---       packet_data
      ---         BLOCKEND  ---      ---       LVL=1
      0100767EH   LINE      CODE     ---       #848
      0100767EH   LINE      CODE     ---       #853
      01007683H   LINE      CODE     ---       #856
      01007685H   LINE      CODE     ---       #859
      01007691H   LINE      CODE     ---       #860
      ---         BLOCKEND  ---      ---       LVL=0

      01007009H   BLOCK     CODE     ---       LVL=0
      01007009H   LINE      CODE     ---       #862
      01007009H   LINE      CODE     ---       #864
      01007012H   LINE      CODE     ---       #866
      01007017H   LINE      CODE     ---       #867
      0100701CH   LINE      CODE     ---       #868
      0100701DH   LINE      CODE     ---       #869
      0100701DH   LINE      CODE     ---       #871
      01007026H   LINE      CODE     ---       #872
      01007029H   LINE      CODE     ---       #877
      01007041H   LINE      CODE     ---       #878
      01007044H   LINE      CODE     ---       #879
      01007049H   LINE      CODE     ---       #880
      01007049H   LINE      CODE     ---       #881
      ---         BLOCKEND  ---      ---       LVL=0

      0100797DH   BLOCK     CODE     ---       LVL=0
      0100797DH   LINE      CODE     ---       #883
      0100797DH   LINE      CODE     ---       #885
      ---         BLOCKEND  ---      ---       LVL=0

      0100762AH   BLOCK     CODE     ---       LVL=0
      0100762AH   LINE      CODE     ---       #887
      0100762AH   LINE      CODE     ---       #889
      01007633H   LINE      CODE     ---       #890
      01007639H   LINE      CODE     ---       #892
LX51 LINKER/LOCATER V4.64.0.0                                                         09/27/2016  11:48:46  PAGE 41


      0100763EH   LINE      CODE     ---       #893
      ---         BLOCKEND  ---      ---       LVL=0

      0100797EH   BLOCK     CODE     ---       LVL=0
      0100797EH   LINE      CODE     ---       #895
      0100797EH   LINE      CODE     ---       #897
      ---         BLOCKEND  ---      ---       LVL=0

      01007385H   BLOCK     CODE     ---       LVL=0
      01007385H   BLOCK     CODE     NEAR LAB  LVL=1
      02000005H   SYMBOL    XDATA    ---       packet_data
      ---         BLOCKEND  ---      ---       LVL=1
      01007385H   LINE      CODE     ---       #899
      01007385H   LINE      CODE     ---       #905
      0100738BH   LINE      CODE     ---       #908
      01007393H   LINE      CODE     ---       #911
      010073A3H   LINE      CODE     ---       #914
      010073AFH   LINE      CODE     ---       #915
      ---         BLOCKEND  ---      ---       LVL=0

      010063D3H   BLOCK     CODE     ---       LVL=0
      010063D3H   BLOCK     CODE     NEAR LAB  LVL=1
      0000000BH   SYMBOL    DATA     BYTE      k_imu
      02000005H   SYMBOL    XDATA    BYTE      flags
      00000006H   SYMBOL    DATA     BYTE      sz
      02000006H   SYMBOL    XDATA    ---       packet_data
      ---         BLOCKEND  ---      ---       LVL=1
      010063D3H   LINE      CODE     ---       #918
      010063D3H   LINE      CODE     ---       #921
      010063D6H   LINE      CODE     ---       #923
      010063E1H   LINE      CODE     ---       #929
      010063E7H   LINE      CODE     ---       #931
      010063F8H   LINE      CODE     ---       #932
      010063F8H   LINE      CODE     ---       #933
      01006416H   LINE      CODE     ---       #934
      01006442H   LINE      CODE     ---       #935
      0100646EH   LINE      CODE     ---       #936
      0100649AH   LINE      CODE     ---       #937
      0100649FH   LINE      CODE     ---       #940
      010064B7H   LINE      CODE     ---       #941
      010064C4H   LINE      CODE     ---       #943
      ---         BLOCKEND  ---      ---       LVL=0

      010078D2H   BLOCK     CODE     ---       LVL=0
      010078D2H   LINE      CODE     ---       #945
      010078D2H   LINE      CODE     ---       #949
      010078D8H   LINE      CODE     ---       #950
      ---         BLOCKEND  ---      ---       LVL=0

      01005DEDH   BLOCK     CODE     ---       LVL=0
      01005DEDH   BLOCK     CODE     NEAR LAB  LVL=1
      00000007H   SYMBOL    DATA     BYTE      k_imu
      00000006H   SYMBOL    DATA     BYTE      id
      00000005H   SYMBOL    DATA     BYTE      flags
      ---         BLOCKEND  ---      ---       LVL=1
      01005DEDH   LINE      CODE     ---       #952
      01005DEDH   LINE      CODE     ---       #953
      01005DEFH   LINE      CODE     ---       #956
      01005DF4H   LINE      CODE     ---       #957
      01005DF7H   LINE      CODE     ---       #959
      01005E0FH   LINE      CODE     ---       #960
      01005E26H   LINE      CODE     ---       #961
      01005E3AH   LINE      CODE     ---       #963
      01005E42H   LINE      CODE     ---       #965
      01005E50H   LINE      CODE     ---       #966
LX51 LINKER/LOCATER V4.64.0.0                                                         09/27/2016  11:48:46  PAGE 42


      01005E50H   LINE      CODE     ---       #967
      01005EB7H   LINE      CODE     ---       #968
      01005EDEH   LINE      CODE     ---       #969
      01005EE2H   LINE      CODE     ---       #970
      01005EF0H   LINE      CODE     ---       #971
      ---         BLOCKEND  ---      ---       LVL=0

      0100666FH   BLOCK     CODE     ---       LVL=0
      0100666FH   BLOCK     CODE     NEAR LAB  LVL=1
      0000000BH   SYMBOL    DATA     BYTE      k_imu
      02000005H   SYMBOL    XDATA    BYTE      flags
      00000006H   SYMBOL    DATA     BYTE      sz
      02000006H   SYMBOL    XDATA    ---       packet_data
      ---         BLOCKEND  ---      ---       LVL=1
      0100666FH   LINE      CODE     ---       #973
      0100666FH   LINE      CODE     ---       #975
      01006672H   LINE      CODE     ---       #977
      0100667BH   LINE      CODE     ---       #983
      01006681H   LINE      CODE     ---       #985
      01006692H   LINE      CODE     ---       #986
      01006692H   LINE      CODE     ---       #987
      010066AEH   LINE      CODE     ---       #988
      0100670EH   LINE      CODE     ---       #989
      01006713H   LINE      CODE     ---       #992
      0100672BH   LINE      CODE     ---       #993
      01006738H   LINE      CODE     ---       #995
      ---         BLOCKEND  ---      ---       LVL=0

      0100558FH   BLOCK     CODE     ---       LVL=0
      0100558FH   BLOCK     CODE     NEAR LAB  LVL=1
      02000005H   SYMBOL    XDATA    ---       packet_data
      02000037H   SYMBOL    XDATA    BYTE      sz
      02000038H   SYMBOL    XDATA    FLOAT     acc_sf_par
      0200003CH   SYMBOL    XDATA    FLOAT     gyro_sf_par
      02000040H   SYMBOL    XDATA    FLOAT     mag_sf_par
      ---         BLOCKEND  ---      ---       LVL=1
      0100558FH   LINE      CODE     ---       #997
      0100558FH   LINE      CODE     ---       #1000
      01005595H   LINE      CODE     ---       #1002
      0100559EH   LINE      CODE     ---       #1003
      010055A9H   LINE      CODE     ---       #1004
      010055B4H   LINE      CODE     ---       #1006
      010055CEH   LINE      CODE     ---       #1007
      010055D5H   LINE      CODE     ---       #1008
      010055D5H   LINE      CODE     ---       #1009
      010055D5H   LINE      CODE     ---       #1010
      010055D5H   LINE      CODE     ---       #1011
      010055F4H   LINE      CODE     ---       #1012
      010055F4H   LINE      CODE     ---       #1013
      010055F4H   LINE      CODE     ---       #1014
      010055F4H   LINE      CODE     ---       #1015
      010055F4H   LINE      CODE     ---       #1017
      0100560EH   LINE      CODE     ---       #1018
      01005615H   LINE      CODE     ---       #1019
      01005615H   LINE      CODE     ---       #1020
      01005615H   LINE      CODE     ---       #1021
      01005615H   LINE      CODE     ---       #1022
      01005634H   LINE      CODE     ---       #1023
      01005634H   LINE      CODE     ---       #1024
      01005634H   LINE      CODE     ---       #1025
      01005634H   LINE      CODE     ---       #1026
      01005634H   LINE      CODE     ---       #1028
      01005642H   LINE      CODE     ---       #1029
      01005649H   LINE      CODE     ---       #1030
      01005649H   LINE      CODE     ---       #1031
LX51 LINKER/LOCATER V4.64.0.0                                                         09/27/2016  11:48:46  PAGE 43


      01005649H   LINE      CODE     ---       #1032
      01005649H   LINE      CODE     ---       #1034
      0100564FH   LINE      CODE     ---       #1037
      01005663H   LINE      CODE     ---       #1038
      01005677H   LINE      CODE     ---       #1039
      0100568BH   LINE      CODE     ---       #1042
      0100569AH   LINE      CODE     ---       #1043
      010056A9H   LINE      CODE     ---       #1044
      010056B8H   LINE      CODE     ---       #1047
      010056D7H   LINE      CODE     ---       #1048
      010056E4H   LINE      CODE     ---       #1050
      ---         BLOCKEND  ---      ---       LVL=0

      ---         MODULE    ---      ---       GLOBALS
      02000B93H   PUBLIC    XDATA    BYTE      dev_pwm_limit
      00000021H.5 PUBLIC    BIT      BIT       tension_valid
      02000B91H   PUBLIC    XDATA    INT       frsAccReg
      02000B5EH   PUBLIC    XDATA    ---       IMU_conf
      00000021H.4 PUBLIC    BIT      BIT       interrupt_flag
      02000B5DH   PUBLIC    XDATA    CHAR      pwm_sign
      02000B5BH   PUBLIC    XDATA    ---       ADC_buf
      02000B59H   PUBLIC    XDATA    INT       imus_data_size
      02000AF3H   PUBLIC    XDATA    ---       Accel
      02000AEFH   PUBLIC    XDATA    FLOAT     tau_feedback
      02000AEEH   PUBLIC    XDATA    BYTE      imu_send_flag
      02000AEAH   PUBLIC    XDATA    DWORD     timer_value0
      00000021H.3 PUBLIC    BIT      BIT       watchdog_flag
      02000AE9H   PUBLIC    XDATA    BYTE      rateGyro
      02000AC7H   PUBLIC    XDATA    ---       single_imu_size
      02000984H   PUBLIC    XDATA    ---       g_imuNew
      00000021H.2 PUBLIC    BIT      BIT       reset_last_value_flag
      02000983H   PUBLIC    XDATA    BYTE      rateAcc
      020008FEH   PUBLIC    XDATA    ---       g_rx
      020008CBH   PUBLIC    XDATA    ---       MagCal
      020008C7H   PUBLIC    XDATA    LONG      dev_tension
      020008C3H   PUBLIC    XDATA    DWORD     timer_value
      0200085DH   PUBLIC    XDATA    ---       Gyro
      020007F7H   PUBLIC    XDATA    ---       Mag
      020007F6H   PUBLIC    XDATA    BYTE      N_IMU_Connected
      020006B3H   PUBLIC    XDATA    ---       g_imu
      020006B1H   PUBLIC    XDATA    INT       frsGyroReg
      020006A8H   PUBLIC    XDATA    ---       g_mem
      02000697H   PUBLIC    XDATA    ---       IMU_connected
      0200068EH   PUBLIC    XDATA    ---       c_mem
      000000CAH   SFRSYM    DATA     BYTE      SFRPRT5SEL
      000000DAH   SFRSYM    DATA     BYTE      SFRPRT6SEL
      000000D0H.6 SFRSYM    DATA     BIT       AC
      000000A8H.7 SFRSYM    DATA     BIT       EA
      000000A8H   SFRSYM    DATA     BYTE      IE
      00000085H   SFRSYM    DATA     BYTE      DPH1
      00000084H   SFRSYM    DATA     BYTE      DPL1
      000000D0H.7 SFRSYM    DATA     BIT       CY
      000000A0H   SFRSYM    DATA     BYTE      P2AX
      00000095H   SFRSYM    DATA     BYTE      DPX1
      00000081H   SFRSYM    DATA     BYTE      SP
      000000D0H.2 SFRSYM    DATA     BIT       OV
      00000080H   SFRSYM    DATA     BYTE      SFRPRT0DR
      00000090H   SFRSYM    DATA     BYTE      SFRPRT1DR
      000000F2H   SFRSYM    DATA     BYTE      SFRPRT12SEL
      00000098H   SFRSYM    DATA     BYTE      SFRPRT2DR
      000000B0H   SFRSYM    DATA     BYTE      SFRPRT3DR
      000000C0H   SFRSYM    DATA     BYTE      SFRPRT4DR
      000000FAH   SFRSYM    DATA     BYTE      SFRPRT15SEL
      000000C8H   SFRSYM    DATA     BYTE      SFRPRT5DR
      000000D8H   SFRSYM    DATA     BYTE      SFRPRT6DR
LX51 LINKER/LOCATER V4.64.0.0                                                         09/27/2016  11:48:46  PAGE 44


      00000089H   SFRSYM    DATA     BYTE      SFRPRT0PS
      00000091H   SFRSYM    DATA     BYTE      SFRPRT1PS
      00000099H   SFRSYM    DATA     BYTE      SFRPRT2PS
      000000B1H   SFRSYM    DATA     BYTE      SFRPRT3PS
      000000C1H   SFRSYM    DATA     BYTE      SFRPRT4PS
      000000C9H   SFRSYM    DATA     BYTE      SFRPRT5PS
      000000D9H   SFRSYM    DATA     BYTE      SFRPRT6PS
      000000EAH   SFRSYM    DATA     BYTE      MXAX
      000000F0H   SFRSYM    DATA     BYTE      B
      000000E0H   SFRSYM    DATA     BYTE      ACC
      000000D0H   SFRSYM    DATA     BIT       P
      000000D0H.3 SFRSYM    DATA     BIT       RS0
      000000D0H.4 SFRSYM    DATA     BIT       RS1
      00000083H   SFRSYM    DATA     BYTE      DPH
      000000E8H   SFRSYM    DATA     BYTE      SFRPRT12DR
      00000082H   SFRSYM    DATA     BYTE      DPL
      000000F8H   SFRSYM    DATA     BYTE      SFRPRT15DR
      00000086H   SFRSYM    DATA     BYTE      DPS
      000000E9H   SFRSYM    DATA     BYTE      SFRPRT12PS
      00000093H   SFRSYM    DATA     BYTE      DPX
      000000F9H   SFRSYM    DATA     BYTE      SFRPRT15PS
      000000D0H.5 SFRSYM    DATA     BIT       F0
      000000D0H.1 SFRSYM    DATA     BIT       F1
      0000008AH   SFRSYM    DATA     BYTE      SFRPRT0SEL
      000000D0H   SFRSYM    DATA     BYTE      PSW
      000000A2H   SFRSYM    DATA     BYTE      SFRPRT1SEL
      0000009AH   SFRSYM    DATA     BYTE      SFRPRT2SEL
      000000B2H   SFRSYM    DATA     BYTE      SFRPRT3SEL
      000000C2H   SFRSYM    DATA     BYTE      SFRPRT4SEL

      ---         MODULE    ---      ---       INTERRUPTIONS
      0100704AH   PUBLIC    CODE     ---       function_scheduler
      01005AA1H   PUBLIC    CODE     ---       interrupt_manager
      01007972H   PUBLIC    CODE     ---       ISR_RS485_RX_ExInterrupt
      01007329H   PUBLIC    CODE     ---       ISR_WATCHDOG_Handler
      000000CAH   SFRSYM    DATA     BYTE      SFRPRT5SEL
      000000DAH   SFRSYM    DATA     BYTE      SFRPRT6SEL
      000000D0H.6 SFRSYM    DATA     BIT       AC
      000000A8H.7 SFRSYM    DATA     BIT       EA
      000000A8H   SFRSYM    DATA     BYTE      IE
      00000085H   SFRSYM    DATA     BYTE      DPH1
      00000084H   SFRSYM    DATA     BYTE      DPL1
      000000D0H.7 SFRSYM    DATA     BIT       CY
      000000A0H   SFRSYM    DATA     BYTE      P2AX
      00000095H   SFRSYM    DATA     BYTE      DPX1
      00000081H   SFRSYM    DATA     BYTE      SP
      000000D0H.2 SFRSYM    DATA     BIT       OV
      00000080H   SFRSYM    DATA     BYTE      SFRPRT0DR
      00000090H   SFRSYM    DATA     BYTE      SFRPRT1DR
      000000F2H   SFRSYM    DATA     BYTE      SFRPRT12SEL
      00000098H   SFRSYM    DATA     BYTE      SFRPRT2DR
      000000B0H   SFRSYM    DATA     BYTE      SFRPRT3DR
      000000C0H   SFRSYM    DATA     BYTE      SFRPRT4DR
      000000FAH   SFRSYM    DATA     BYTE      SFRPRT15SEL
      000000C8H   SFRSYM    DATA     BYTE      SFRPRT5DR
      000000D8H   SFRSYM    DATA     BYTE      SFRPRT6DR
      00000089H   SFRSYM    DATA     BYTE      SFRPRT0PS
      00000091H   SFRSYM    DATA     BYTE      SFRPRT1PS
      00000099H   SFRSYM    DATA     BYTE      SFRPRT2PS
      000000B1H   SFRSYM    DATA     BYTE      SFRPRT3PS
      000000C1H   SFRSYM    DATA     BYTE      SFRPRT4PS
      000000C9H   SFRSYM    DATA     BYTE      SFRPRT5PS
      000000D9H   SFRSYM    DATA     BYTE      SFRPRT6PS
      000000EAH   SFRSYM    DATA     BYTE      MXAX
      000000F0H   SFRSYM    DATA     BYTE      B
LX51 LINKER/LOCATER V4.64.0.0                                                         09/27/2016  11:48:46  PAGE 45


      000000E0H   SFRSYM    DATA     BYTE      ACC
      000000D0H   SFRSYM    DATA     BIT       P
      000000D0H.3 SFRSYM    DATA     BIT       RS0
      000000D0H.4 SFRSYM    DATA     BIT       RS1
      00000083H   SFRSYM    DATA     BYTE      DPH
      000000E8H   SFRSYM    DATA     BYTE      SFRPRT12DR
      00000082H   SFRSYM    DATA     BYTE      DPL
      000000F8H   SFRSYM    DATA     BYTE      SFRPRT15DR
      00000086H   SFRSYM    DATA     BYTE      DPS
      000000E9H   SFRSYM    DATA     BYTE      SFRPRT12PS
      00000093H   SFRSYM    DATA     BYTE      DPX
      000000F9H   SFRSYM    DATA     BYTE      SFRPRT15PS
      000000D0H.5 SFRSYM    DATA     BIT       F0
      000000D0H.1 SFRSYM    DATA     BIT       F1
      0000008AH   SFRSYM    DATA     BYTE      SFRPRT0SEL
      000000D0H   SFRSYM    DATA     BYTE      PSW
      000000A2H   SFRSYM    DATA     BYTE      SFRPRT1SEL
      0000009AH   SFRSYM    DATA     BYTE      SFRPRT2SEL
      000000B2H   SFRSYM    DATA     BYTE      SFRPRT3SEL
      000000C2H   SFRSYM    DATA     BYTE      SFRPRT4SEL

      01007329H   BLOCK     CODE     ---       LVL=0
      01007329H   LINE      CODE     ---       #41
      01007329H   LINE      CODE     ---       #45
      0100732BH   LINE      CODE     ---       #47
      ---         BLOCKEND  ---      ---       LVL=0

      01007972H   BLOCK     CODE     ---       LVL=0
      01007972H   LINE      CODE     ---       #53
      01007972H   LINE      CODE     ---       #57
      01007974H   LINE      CODE     ---       #59
      ---         BLOCKEND  ---      ---       LVL=0

      01005AA1H   BLOCK     CODE     ---       LVL=0
      01005AA1H   BLOCK     CODE     NEAR LAB  LVL=1
      00000022H   SYMBOL    DATA     BYTE      state
      00000023H   SYMBOL    DATA     BYTE      data_packet_index
      00000024H   SYMBOL    DATA     BYTE      data_packet_length
      02000FE2H   SYMBOL    XDATA    ---       data_packet_buffer
      00000025H   SYMBOL    DATA     ---       rx_queue
      00000008H   SYMBOL    DATA     BYTE      rx_data
      00000020H.0 SYMBOL    BIT      BIT       rx_data_type
      00000009H   SYMBOL    DATA     BYTE      package_count
      ---         BLOCKEND  ---      ---       LVL=1
      01005AA1H   LINE      CODE     ---       #76
      01005AA1H   LINE      CODE     ---       #92
      01005AA4H   LINE      CODE     ---       #98
      01005AB7H   LINE      CODE     ---       #102
      01005ABCH   LINE      CODE     ---       #104
      01005AD4H   LINE      CODE     ---       #106
      01005AD4H   LINE      CODE     ---       #108
      01005AD7H   LINE      CODE     ---       #109
      01005ADAH   LINE      CODE     ---       #110
      01005ADDH   LINE      CODE     ---       #113
      01005AE7H   LINE      CODE     ---       #114
      01005AEAH   LINE      CODE     ---       #115
      01005AECH   LINE      CODE     ---       #116
      01005AEEH   LINE      CODE     ---       #117
      01005AF1H   LINE      CODE     ---       #118
      01005AF3H   LINE      CODE     ---       #119
      01005B03H   LINE      CODE     ---       #122
      01005B08H   LINE      CODE     ---       #123
      01005B0AH   LINE      CODE     ---       #126
      01005B0AH   LINE      CODE     ---       #129
      01005B16H   LINE      CODE     ---       #130
LX51 LINKER/LOCATER V4.64.0.0                                                         09/27/2016  11:48:46  PAGE 46


      01005B1AH   LINE      CODE     ---       #132
      01005B1CH   LINE      CODE     ---       #134
      01005B1FH   LINE      CODE     ---       #135
      01005B22H   LINE      CODE     ---       #136
      01005B24H   LINE      CODE     ---       #139
      01005B24H   LINE      CODE     ---       #142
      01005B27H   LINE      CODE     ---       #144
      01005B2EH   LINE      CODE     ---       #145
      01005B31H   LINE      CODE     ---       #146
      01005B33H   LINE      CODE     ---       #147
      01005B3DH   LINE      CODE     ---       #148
      01005B40H   LINE      CODE     ---       #149
      01005B42H   LINE      CODE     ---       #150
      01005B45H   LINE      CODE     ---       #151
      01005B48H   LINE      CODE     ---       #153
      01005B4BH   LINE      CODE     ---       #154
      01005B51H   LINE      CODE     ---       #156
      01005B54H   LINE      CODE     ---       #157
      01005B54H   LINE      CODE     ---       #158
      01005B57H   LINE      CODE     ---       #161
      01005B57H   LINE      CODE     ---       #163
      01005B65H   LINE      CODE     ---       #164
      01005B67H   LINE      CODE     ---       #167
      01005B71H   LINE      CODE     ---       #169
      01005B74H   LINE      CODE     ---       #171
      01005B87H   LINE      CODE     ---       #172
      01005B90H   LINE      CODE     ---       #173
      01005B96H   LINE      CODE     ---       #174
      01005B99H   LINE      CODE     ---       #175
      01005B99H   LINE      CODE     ---       #177
      01005B9CH   LINE      CODE     ---       #178
      01005B9EH   LINE      CODE     ---       #179
      01005BA0H   LINE      CODE     ---       #180
      01005BA2H   LINE      CODE     ---       #182
      01005BA2H   LINE      CODE     ---       #183
      01005BA5H   LINE      CODE     ---       #186
      01005BA5H   LINE      CODE     ---       #187
      01005BAEH   LINE      CODE     ---       #188
      01005BB0H   LINE      CODE     ---       #189
      01005BB2H   LINE      CODE     ---       #190
      01005BB7H   LINE      CODE     ---       #191
      01005BBCH   LINE      CODE     ---       #192
      01005BBFH   LINE      CODE     ---       #193
      01005BC1H   LINE      CODE     ---       #194
      01005BC1H   LINE      CODE     ---       #195
      01005BC4H   LINE      CODE     ---       #196
      01005BC4H   LINE      CODE     ---       #197
      01005BC7H   LINE      CODE     ---       #198
      ---         BLOCKEND  ---      ---       LVL=0

      0100704AH   BLOCK     CODE     ---       LVL=0
      0100704AH   BLOCK     CODE     NEAR LAB  LVL=1
      02001062H   SYMBOL    XDATA    WORD      counter_calibration
      ---         BLOCKEND  ---      ---       LVL=1
      0100704AH   LINE      CODE     ---       #207
      0100704AH   LINE      CODE     ---       #211
      01007053H   LINE      CODE     ---       #215
      01007056H   LINE      CODE     ---       #216
      01007058H   LINE      CODE     ---       #217
      0100705BH   LINE      CODE     ---       #218
      0100705BH   LINE      CODE     ---       #233
      0100706EH   LINE      CODE     ---       #235
      01007071H   LINE      CODE     ---       #236
      01007073H   LINE      CODE     ---       #237
      01007076H   LINE      CODE     ---       #238
LX51 LINKER/LOCATER V4.64.0.0                                                         09/27/2016  11:48:46  PAGE 47


      01007076H   LINE      CODE     ---       #240
      0100707FH   LINE      CODE     ---       #241
      0100708AH   LINE      CODE     ---       #243
      ---         BLOCKEND  ---      ---       LVL=0

      ---         MODULE    ---      ---       MAIN
      010065A4H   PUBLIC    CODE     ---       main
      000000CAH   SFRSYM    DATA     BYTE      SFRPRT5SEL
      000000DAH   SFRSYM    DATA     BYTE      SFRPRT6SEL
      000000D0H.6 SFRSYM    DATA     BIT       AC
      000000A8H.7 SFRSYM    DATA     BIT       EA
      000000A8H   SFRSYM    DATA     BYTE      IE
      00000085H   SFRSYM    DATA     BYTE      DPH1
      00000084H   SFRSYM    DATA     BYTE      DPL1
      000000D0H.7 SFRSYM    DATA     BIT       CY
      000000A0H   SFRSYM    DATA     BYTE      P2AX
      00000095H   SFRSYM    DATA     BYTE      DPX1
      00000081H   SFRSYM    DATA     BYTE      SP
      000000D0H.2 SFRSYM    DATA     BIT       OV
      00000080H   SFRSYM    DATA     BYTE      SFRPRT0DR
      00000090H   SFRSYM    DATA     BYTE      SFRPRT1DR
      000000F2H   SFRSYM    DATA     BYTE      SFRPRT12SEL
      00000098H   SFRSYM    DATA     BYTE      SFRPRT2DR
      000000B0H   SFRSYM    DATA     BYTE      SFRPRT3DR
      000000C0H   SFRSYM    DATA     BYTE      SFRPRT4DR
      000000FAH   SFRSYM    DATA     BYTE      SFRPRT15SEL
      000000C8H   SFRSYM    DATA     BYTE      SFRPRT5DR
      000000D8H   SFRSYM    DATA     BYTE      SFRPRT6DR
      00000089H   SFRSYM    DATA     BYTE      SFRPRT0PS
      00000091H   SFRSYM    DATA     BYTE      SFRPRT1PS
      00000099H   SFRSYM    DATA     BYTE      SFRPRT2PS
      000000B1H   SFRSYM    DATA     BYTE      SFRPRT3PS
      000000C1H   SFRSYM    DATA     BYTE      SFRPRT4PS
      000000C9H   SFRSYM    DATA     BYTE      SFRPRT5PS
      000000D9H   SFRSYM    DATA     BYTE      SFRPRT6PS
      000000EAH   SFRSYM    DATA     BYTE      MXAX
      000000F0H   SFRSYM    DATA     BYTE      B
      000000E0H   SFRSYM    DATA     BYTE      ACC
      000000D0H   SFRSYM    DATA     BIT       P
      000000D0H.3 SFRSYM    DATA     BIT       RS0
      000000D0H.4 SFRSYM    DATA     BIT       RS1
      00000083H   SFRSYM    DATA     BYTE      DPH
      000000E8H   SFRSYM    DATA     BYTE      SFRPRT12DR
      00000082H   SFRSYM    DATA     BYTE      DPL
      000000F8H   SFRSYM    DATA     BYTE      SFRPRT15DR
      00000086H   SFRSYM    DATA     BYTE      DPS
      000000E9H   SFRSYM    DATA     BYTE      SFRPRT12PS
      00000093H   SFRSYM    DATA     BYTE      DPX
      000000F9H   SFRSYM    DATA     BYTE      SFRPRT15PS
      000000D0H.5 SFRSYM    DATA     BIT       F0
      000000D0H.1 SFRSYM    DATA     BIT       F1
      0000008AH   SFRSYM    DATA     BYTE      SFRPRT0SEL
      000000D0H   SFRSYM    DATA     BYTE      PSW
      000000A2H   SFRSYM    DATA     BYTE      SFRPRT1SEL
      0000009AH   SFRSYM    DATA     BYTE      SFRPRT2SEL
      000000B2H   SFRSYM    DATA     BYTE      SFRPRT3SEL
      000000C2H   SFRSYM    DATA     BYTE      SFRPRT4SEL

      010065A4H   BLOCK     CODE     ---       LVL=0
      010065A4H   BLOCK     CODE     NEAR LAB  LVL=1
      02000000H   SYMBOL    XDATA    BYTE      i
      02000001H   SYMBOL    XDATA    BYTE      DMA_Chan
      02000002H   SYMBOL    XDATA    ---       DMA_TD
      02000003H   SYMBOL    XDATA    INT       k_imu
      ---         BLOCKEND  ---      ---       LVL=1
LX51 LINKER/LOCATER V4.64.0.0                                                         09/27/2016  11:48:46  PAGE 48


      010065A4H   LINE      CODE     ---       #50
      010065A4H   LINE      CODE     ---       #51
      010065A4H   LINE      CODE     ---       #67
      010065A7H   LINE      CODE     ---       #68
      010065AAH   LINE      CODE     ---       #72
      010065B3H   LINE      CODE     ---       #73
      010065B8H   LINE      CODE     ---       #77
      010065BBH   LINE      CODE     ---       #78
      010065BEH   LINE      CODE     ---       #79
      010065C1H   LINE      CODE     ---       #81
      010065C4H   LINE      CODE     ---       #82
      010065C7H   LINE      CODE     ---       #84
      010065CEH   LINE      CODE     ---       #88
      010065D1H   LINE      CODE     ---       #90
      010065D8H   LINE      CODE     ---       #92
      010065DDH   LINE      CODE     ---       #96
      010065E0H   LINE      CODE     ---       #97
      010065E3H   LINE      CODE     ---       #99
      010065EBH   LINE      CODE     ---       #102
      010065EEH   LINE      CODE     ---       #103
      010065F1H   LINE      CODE     ---       #104
      010065F4H   LINE      CODE     ---       #105
      010065F7H   LINE      CODE     ---       #106
      010065FAH   LINE      CODE     ---       #107
      010065FDH   LINE      CODE     ---       #108
      01006606H   LINE      CODE     ---       #110
      0100660BH   LINE      CODE     ---       #113
      0100660EH   LINE      CODE     ---       #115
      01006613H   LINE      CODE     ---       #118
      01006616H   LINE      CODE     ---       #119
      01006619H   LINE      CODE     ---       #136
      0100661EH   LINE      CODE     ---       #137
      01006620H   LINE      CODE     ---       #139
      01006622H   LINE      CODE     ---       #142
      01006628H   LINE      CODE     ---       #143
      0100662CH   LINE      CODE     ---       #147
      0100662CH   LINE      CODE     ---       #148
      0100662CH   LINE      CODE     ---       #150
      01006631H   LINE      CODE     ---       #153
      01006634H   LINE      CODE     ---       #156
      0100663AH   LINE      CODE     ---       #158
      0100663DH   LINE      CODE     ---       #160
      01006642H   LINE      CODE     ---       #162
      01006644H   LINE      CODE     ---       #163
      01006646H   LINE      CODE     ---       #165
      01006649H   LINE      CODE     ---       #166
      0100664BH   LINE      CODE     ---       #168
      0100664BH   LINE      CODE     ---       #169
      0100664EH   LINE      CODE     ---       #171
      01006653H   LINE      CODE     ---       #173
      01006653H   LINE      CODE     ---       #174
      01006653H   LINE      CODE     ---       #175
      01006655H   LINE      CODE     ---       #178
      0100665AH   LINE      CODE     ---       #181
      01006662H   LINE      CODE     ---       #183
      01006669H   LINE      CODE     ---       #184
      0100666CH   LINE      CODE     ---       #185
      0100666EH   LINE      CODE     ---       #186
      0100666EH   LINE      CODE     ---       #187
      ---         BLOCKEND  ---      ---       LVL=0

      ---         MODULE    ---      ---       UTILS
      000000CAH   SFRSYM    DATA     BYTE      SFRPRT5SEL
      000000DAH   SFRSYM    DATA     BYTE      SFRPRT6SEL
      000000D0H.6 SFRSYM    DATA     BIT       AC
LX51 LINKER/LOCATER V4.64.0.0                                                         09/27/2016  11:48:46  PAGE 49


      000000A8H.7 SFRSYM    DATA     BIT       EA
      000000A8H   SFRSYM    DATA     BYTE      IE
      00000085H   SFRSYM    DATA     BYTE      DPH1
      00000084H   SFRSYM    DATA     BYTE      DPL1
      000000D0H.7 SFRSYM    DATA     BIT       CY
      000000A0H   SFRSYM    DATA     BYTE      P2AX
      00000095H   SFRSYM    DATA     BYTE      DPX1
      00000081H   SFRSYM    DATA     BYTE      SP
      000000D0H.2 SFRSYM    DATA     BIT       OV
      00000080H   SFRSYM    DATA     BYTE      SFRPRT0DR
      00000090H   SFRSYM    DATA     BYTE      SFRPRT1DR
      000000F2H   SFRSYM    DATA     BYTE      SFRPRT12SEL
      00000098H   SFRSYM    DATA     BYTE      SFRPRT2DR
      000000B0H   SFRSYM    DATA     BYTE      SFRPRT3DR
      000000C0H   SFRSYM    DATA     BYTE      SFRPRT4DR
      000000FAH   SFRSYM    DATA     BYTE      SFRPRT15SEL
      000000C8H   SFRSYM    DATA     BYTE      SFRPRT5DR
      000000D8H   SFRSYM    DATA     BYTE      SFRPRT6DR
      00000089H   SFRSYM    DATA     BYTE      SFRPRT0PS
      00000091H   SFRSYM    DATA     BYTE      SFRPRT1PS
      00000099H   SFRSYM    DATA     BYTE      SFRPRT2PS
      000000B1H   SFRSYM    DATA     BYTE      SFRPRT3PS
      000000C1H   SFRSYM    DATA     BYTE      SFRPRT4PS
      000000C9H   SFRSYM    DATA     BYTE      SFRPRT5PS
      000000D9H   SFRSYM    DATA     BYTE      SFRPRT6PS
      000000EAH   SFRSYM    DATA     BYTE      MXAX
      000000F0H   SFRSYM    DATA     BYTE      B
      000000E0H   SFRSYM    DATA     BYTE      ACC
      000000D0H   SFRSYM    DATA     BIT       P
      000000D0H.3 SFRSYM    DATA     BIT       RS0
      000000D0H.4 SFRSYM    DATA     BIT       RS1
      00000083H   SFRSYM    DATA     BYTE      DPH
      000000E8H   SFRSYM    DATA     BYTE      SFRPRT12DR
      00000082H   SFRSYM    DATA     BYTE      DPL
      000000F8H   SFRSYM    DATA     BYTE      SFRPRT15DR
      00000086H   SFRSYM    DATA     BYTE      DPS
      000000E9H   SFRSYM    DATA     BYTE      SFRPRT12PS
      00000093H   SFRSYM    DATA     BYTE      DPX
      000000F9H   SFRSYM    DATA     BYTE      SFRPRT15PS
      000000D0H.5 SFRSYM    DATA     BIT       F0
      000000D0H.1 SFRSYM    DATA     BIT       F1
      0000008AH   SFRSYM    DATA     BYTE      SFRPRT0SEL
      000000D0H   SFRSYM    DATA     BYTE      PSW
      000000A2H   SFRSYM    DATA     BYTE      SFRPRT1SEL
      0000009AH   SFRSYM    DATA     BYTE      SFRPRT2SEL
      000000B2H   SFRSYM    DATA     BYTE      SFRPRT3SEL
      000000C2H   SFRSYM    DATA     BYTE      SFRPRT4SEL
      00000004H   SYMBOL    DATA     LONG      new_value
      020010CEH   SYMBOL    XDATA    LONG      old_value
      020010D2H   SYMBOL    XDATA    LONG      aux
      00000004H   SYMBOL    DATA     LONG      new_value
      020010D6H   SYMBOL    XDATA    LONG      old_value
      020010DAH   SYMBOL    XDATA    LONG      aux
      00000004H   SYMBOL    DATA     LONG      new_value
      020010DEH   SYMBOL    XDATA    LONG      old_value
      020010E2H   SYMBOL    XDATA    LONG      aux
      00000004H   SYMBOL    DATA     LONG      new_value
      020010E6H   SYMBOL    XDATA    LONG      old_value
      020010EAH   SYMBOL    XDATA    LONG      aux
      00000001H   SYMBOL    DATA     ---       value
      00000004H   SYMBOL    DATA     LONG      x
      00000004H   SYMBOL    DATA     LONG      aux

      ---         MODULE    ---      ---       IMU_FUNCTIONS
      010075D2H   PUBLIC    CODE     ---       _ReadControlRegister
LX51 LINKER/LOCATER V4.64.0.0                                                         09/27/2016  11:48:46  PAGE 50


      0100726EH   PUBLIC    CODE     ---       _WriteControlRegister
      01006A6CH   PUBLIC    CODE     ---       _ReadMagCal
      010062DDH   PUBLIC    CODE     ---       _ReadMag
      010061E2H   PUBLIC    CODE     ---       _ReadGyro
      010060E7H   PUBLIC    CODE     ---       _ReadAcc
      01006BCEH   PUBLIC    CODE     ---       _ReadIMU
      010051E4H   PUBLIC    CODE     ---       InitIMUgeneral
      01006F35H   PUBLIC    CODE     ---       _ChipSelector
      01005FECH   PUBLIC    CODE     ---       InitIMUMagCal
      01005EF1H   PUBLIC    CODE     ---       InitIMU
      0100713BH   PUBLIC    CODE     ---       ImusReset
      000000CAH   SFRSYM    DATA     BYTE      SFRPRT5SEL
      000000DAH   SFRSYM    DATA     BYTE      SFRPRT6SEL
      000000D0H.6 SFRSYM    DATA     BIT       AC
      000000A8H.7 SFRSYM    DATA     BIT       EA
      000000A8H   SFRSYM    DATA     BYTE      IE
      00000085H   SFRSYM    DATA     BYTE      DPH1
      00000084H   SFRSYM    DATA     BYTE      DPL1
      000000D0H.7 SFRSYM    DATA     BIT       CY
      000000A0H   SFRSYM    DATA     BYTE      P2AX
      00000095H   SFRSYM    DATA     BYTE      DPX1
      00000081H   SFRSYM    DATA     BYTE      SP
      000000D0H.2 SFRSYM    DATA     BIT       OV
      00000080H   SFRSYM    DATA     BYTE      SFRPRT0DR
      00000090H   SFRSYM    DATA     BYTE      SFRPRT1DR
      000000F2H   SFRSYM    DATA     BYTE      SFRPRT12SEL
      00000098H   SFRSYM    DATA     BYTE      SFRPRT2DR
      000000B0H   SFRSYM    DATA     BYTE      SFRPRT3DR
      000000C0H   SFRSYM    DATA     BYTE      SFRPRT4DR
      000000FAH   SFRSYM    DATA     BYTE      SFRPRT15SEL
      000000C8H   SFRSYM    DATA     BYTE      SFRPRT5DR
      000000D8H   SFRSYM    DATA     BYTE      SFRPRT6DR
      00000089H   SFRSYM    DATA     BYTE      SFRPRT0PS
      00000091H   SFRSYM    DATA     BYTE      SFRPRT1PS
      00000099H   SFRSYM    DATA     BYTE      SFRPRT2PS
      000000B1H   SFRSYM    DATA     BYTE      SFRPRT3PS
      000000C1H   SFRSYM    DATA     BYTE      SFRPRT4PS
      000000C9H   SFRSYM    DATA     BYTE      SFRPRT5PS
      000000D9H   SFRSYM    DATA     BYTE      SFRPRT6PS
      000000EAH   SFRSYM    DATA     BYTE      MXAX
      000000F0H   SFRSYM    DATA     BYTE      B
      000000E0H   SFRSYM    DATA     BYTE      ACC
      000000D0H   SFRSYM    DATA     BIT       P
      000000D0H.3 SFRSYM    DATA     BIT       RS0
      000000D0H.4 SFRSYM    DATA     BIT       RS1
      00000083H   SFRSYM    DATA     BYTE      DPH
      000000E8H   SFRSYM    DATA     BYTE      SFRPRT12DR
      00000082H   SFRSYM    DATA     BYTE      DPL
      000000F8H   SFRSYM    DATA     BYTE      SFRPRT15DR
      00000086H   SFRSYM    DATA     BYTE      DPS
      000000E9H   SFRSYM    DATA     BYTE      SFRPRT12PS
      00000093H   SFRSYM    DATA     BYTE      DPX
      000000F9H   SFRSYM    DATA     BYTE      SFRPRT15PS
      000000D0H.5 SFRSYM    DATA     BIT       F0
      000000D0H.1 SFRSYM    DATA     BIT       F1
      0000008AH   SFRSYM    DATA     BYTE      SFRPRT0SEL
      000000D0H   SFRSYM    DATA     BYTE      PSW
      000000A2H   SFRSYM    DATA     BYTE      SFRPRT1SEL
      0000009AH   SFRSYM    DATA     BYTE      SFRPRT2SEL
      000000B2H   SFRSYM    DATA     BYTE      SFRPRT3SEL
      000000C2H   SFRSYM    DATA     BYTE      SFRPRT4SEL

      0100713BH   BLOCK     CODE     ---       LVL=0
      0100713BH   BLOCK     CODE     NEAR LAB  LVL=1
      020004E5H   SYMBOL    XDATA    INT       k_imu
LX51 LINKER/LOCATER V4.64.0.0                                                         09/27/2016  11:48:46  PAGE 51


      ---         BLOCKEND  ---      ---       LVL=1
      0100713BH   LINE      CODE     ---       #23
      0100713BH   LINE      CODE     ---       #26
      0100713EH   LINE      CODE     ---       #27
      01007141H   LINE      CODE     ---       #29
      01007146H   LINE      CODE     ---       #30
      0100714FH   LINE      CODE     ---       #31
      01007154H   LINE      CODE     ---       #32
      0100715DH   LINE      CODE     ---       #33
      01007160H   LINE      CODE     ---       #36
      01007163H   LINE      CODE     ---       #37
      01007166H   LINE      CODE     ---       #38
      0100716FH   LINE      CODE     ---       #40
      ---         BLOCKEND  ---      ---       LVL=0

      01005EF1H   BLOCK     CODE     ---       LVL=0
      01005EF1H   LINE      CODE     ---       #45
      01005EF1H   LINE      CODE     ---       #47
      01005EF8H   LINE      CODE     ---       #48
      01005F01H   LINE      CODE     ---       #49
      01005F08H   LINE      CODE     ---       #50
      01005F11H   LINE      CODE     ---       #51
      01005F18H   LINE      CODE     ---       #52
      01005F21H   LINE      CODE     ---       #53
      01005F2DH   LINE      CODE     ---       #54
      01005F36H   LINE      CODE     ---       #55
      01005F42H   LINE      CODE     ---       #56
      01005F4BH   LINE      CODE     ---       #57
      01005F52H   LINE      CODE     ---       #58
      01005F5BH   LINE      CODE     ---       #60
      01005F62H   LINE      CODE     ---       #61
      01005F6BH   LINE      CODE     ---       #63
      01005F72H   LINE      CODE     ---       #64
      01005F7BH   LINE      CODE     ---       #65
      01005F82H   LINE      CODE     ---       #66
      01005F8BH   LINE      CODE     ---       #68
      01005F92H   LINE      CODE     ---       #69
      01005F9BH   LINE      CODE     ---       #70
      01005FA2H   LINE      CODE     ---       #71
      01005FABH   LINE      CODE     ---       #73
      01005FB2H   LINE      CODE     ---       #74
      01005FBBH   LINE      CODE     ---       #76
      01005FC2H   LINE      CODE     ---       #77
      01005FCBH   LINE      CODE     ---       #79
      01005FD2H   LINE      CODE     ---       #80
      01005FDBH   LINE      CODE     ---       #81
      01005FE2H   LINE      CODE     ---       #82
      01005FEBH   LINE      CODE     ---       #83
      ---         BLOCKEND  ---      ---       LVL=0

      01005FECH   BLOCK     CODE     ---       LVL=0
      01005FECH   LINE      CODE     ---       #88
      01005FECH   LINE      CODE     ---       #90
      01005FF3H   LINE      CODE     ---       #91
      01005FFCH   LINE      CODE     ---       #92
      01006003H   LINE      CODE     ---       #93
      0100600CH   LINE      CODE     ---       #94
      01006013H   LINE      CODE     ---       #95
      0100601CH   LINE      CODE     ---       #96
      01006028H   LINE      CODE     ---       #97
      01006031H   LINE      CODE     ---       #98
      0100603DH   LINE      CODE     ---       #99
      01006046H   LINE      CODE     ---       #100
      0100604DH   LINE      CODE     ---       #101
      01006056H   LINE      CODE     ---       #103
LX51 LINKER/LOCATER V4.64.0.0                                                         09/27/2016  11:48:46  PAGE 52


      0100605DH   LINE      CODE     ---       #104
      01006066H   LINE      CODE     ---       #106
      0100606DH   LINE      CODE     ---       #107
      01006076H   LINE      CODE     ---       #108
      0100607DH   LINE      CODE     ---       #109
      01006086H   LINE      CODE     ---       #110
      0100608DH   LINE      CODE     ---       #111
      01006096H   LINE      CODE     ---       #112
      0100609DH   LINE      CODE     ---       #113
      010060A6H   LINE      CODE     ---       #115
      010060ADH   LINE      CODE     ---       #116
      010060B6H   LINE      CODE     ---       #117
      010060BDH   LINE      CODE     ---       #118
      010060C6H   LINE      CODE     ---       #119
      010060CDH   LINE      CODE     ---       #120
      010060D6H   LINE      CODE     ---       #121
      010060DDH   LINE      CODE     ---       #122
      010060E6H   LINE      CODE     ---       #123
      ---         BLOCKEND  ---      ---       LVL=0

      01006F35H   BLOCK     CODE     ---       LVL=0
      02000688H   SYMBOL    XDATA    INT       n
      01006F35H   LINE      CODE     ---       #128
      01006F3DH   LINE      CODE     ---       #129
      01006F3DH   LINE      CODE     ---       #130
      01006F42H   LINE      CODE     ---       #131
      01006F47H   LINE      CODE     ---       #133
      01006F59H   LINE      CODE     ---       #134
      01006F5CH   LINE      CODE     ---       #135
      01006F68H   LINE      CODE     ---       #136
      01006F6CH   LINE      CODE     ---       #137
      01006F78H   LINE      CODE     ---       #138
      01006F7DH   LINE      CODE     ---       #139
      ---         BLOCKEND  ---      ---       LVL=0

      010051E4H   BLOCK     CODE     ---       LVL=0
      010051E4H   BLOCK     CODE     NEAR LAB  LVL=1
      020004E7H   SYMBOL    XDATA    BYTE      k_imu
      020004E8H   SYMBOL    XDATA    BYTE      count
      020004E9H   SYMBOL    XDATA    INT       IMU_ack
      020004EBH   SYMBOL    XDATA    ---       tmp
      ---         BLOCKEND  ---      ---       LVL=1
      010051E4H   LINE      CODE     ---       #144
      010051E4H   LINE      CODE     ---       #145
      010051E4H   LINE      CODE     ---       #147
      010051E9H   LINE      CODE     ---       #152
      010051F6H   LINE      CODE     ---       #153
      01005205H   LINE      CODE     ---       #156
      01005217H   LINE      CODE     ---       #157
      01005217H   LINE      CODE     ---       #158
      0100521EH   LINE      CODE     ---       #159
      01005220H   LINE      CODE     ---       #160
      01005220H   LINE      CODE     ---       #161
      01005229H   LINE      CODE     ---       #162
      0100522BH   LINE      CODE     ---       #163
      0100522BH   LINE      CODE     ---       #164
      01005234H   LINE      CODE     ---       #165
      01005236H   LINE      CODE     ---       #166
      01005236H   LINE      CODE     ---       #167
      0100523FH   LINE      CODE     ---       #168
      01005241H   LINE      CODE     ---       #169
      01005241H   LINE      CODE     ---       #170
      01005248H   LINE      CODE     ---       #171
      01005248H   LINE      CODE     ---       #172
      01005248H   LINE      CODE     ---       #173
LX51 LINKER/LOCATER V4.64.0.0                                                         09/27/2016  11:48:46  PAGE 53


      01005257H   LINE      CODE     ---       #175
      01005265H   LINE      CODE     ---       #176
      01005265H   LINE      CODE     ---       #177
      0100526CH   LINE      CODE     ---       #178
      01005271H   LINE      CODE     ---       #179
      01005273H   LINE      CODE     ---       #180
      01005273H   LINE      CODE     ---       #181
      0100527CH   LINE      CODE     ---       #182
      01005282H   LINE      CODE     ---       #183
      01005284H   LINE      CODE     ---       #184
      01005284H   LINE      CODE     ---       #185
      0100528DH   LINE      CODE     ---       #186
      01005293H   LINE      CODE     ---       #187
      01005295H   LINE      CODE     ---       #188
      01005295H   LINE      CODE     ---       #189
      0100529EH   LINE      CODE     ---       #190
      010052A4H   LINE      CODE     ---       #191
      010052A4H   LINE      CODE     ---       #192
      010052A4H   LINE      CODE     ---       #195
      010052B3H   LINE      CODE     ---       #196
      010052B3H   LINE      CODE     ---       #197
      010052B8H   LINE      CODE     ---       #198
      010052C1H   LINE      CODE     ---       #199
      010052C4H   LINE      CODE     ---       #200
      010052CDH   LINE      CODE     ---       #201
      010052E2H   LINE      CODE     ---       #202
      010052F3H   LINE      CODE     ---       #203
      01005303H   LINE      CODE     ---       #204
      0100530BH   LINE      CODE     ---       #207
      01005314H   LINE      CODE     ---       #208
      01005323H   LINE      CODE     ---       #209
      01005328H   LINE      CODE     ---       #210
      01005332H   LINE      CODE     ---       #211
      0100533AH   LINE      CODE     ---       #214
      01005340H   LINE      CODE     ---       #215
      01005349H   LINE      CODE     ---       #216
      01005356H   LINE      CODE     ---       #217
      0100535DH   LINE      CODE     ---       #218
      01005361H   LINE      CODE     ---       #219
      0100536FH   LINE      CODE     ---       #220
      0100536FH   LINE      CODE     ---       #221
      01005374H   LINE      CODE     ---       #222
      0100537DH   LINE      CODE     ---       #223
      0100538CH   LINE      CODE     ---       #224
      01005390H   LINE      CODE     ---       #225
      01005390H   LINE      CODE     ---       #226
      01005396H   LINE      CODE     ---       #227
      0100539DH   LINE      CODE     ---       #228
      010053B1H   LINE      CODE     ---       #229
      010053B3H   LINE      CODE     ---       #231
      010053C6H   LINE      CODE     ---       #232
      010053CEH   LINE      CODE     ---       #233
      010053DDH   LINE      CODE     ---       #234
      010053ECH   LINE      CODE     ---       #235
      010053FBH   LINE      CODE     ---       #236
      0100540AH   LINE      CODE     ---       #237
      0100540AH   LINE      CODE     ---       #238
      0100541FH   LINE      CODE     ---       #239
      0100541FH   LINE      CODE     ---       #240
      01005430H   LINE      CODE     ---       #241
      01005436H   LINE      CODE     ---       #242
      01005436H   LINE      CODE     ---       #243
      0100543EH   LINE      CODE     ---       #246
      01005443H   LINE      CODE     ---       #247
      0100544CH   LINE      CODE     ---       #248
LX51 LINKER/LOCATER V4.64.0.0                                                         09/27/2016  11:48:46  PAGE 54


      01005451H   LINE      CODE     ---       #249
      0100545AH   LINE      CODE     ---       #250
      01005469H   LINE      CODE     ---       #251
      01005469H   LINE      CODE     ---       #252
      0100546EH   LINE      CODE     ---       #253
      01005477H   LINE      CODE     ---       #254
      0100547AH   LINE      CODE     ---       #255
      01005483H   LINE      CODE     ---       #256
      01005498H   LINE      CODE     ---       #257
      010054A9H   LINE      CODE     ---       #258
      010054B9H   LINE      CODE     ---       #259
      010054C1H   LINE      CODE     ---       #260
      010054CAH   LINE      CODE     ---       #263
      010054D2H   LINE      CODE     ---       #264
      010054E8H   LINE      CODE     ---       #265
      010054E8H   LINE      CODE     ---       #266
      01005550H   LINE      CODE     ---       #267
      01005577H   LINE      CODE     ---       #268
      01005580H   LINE      CODE     ---       #269
      0100558EH   LINE      CODE     ---       #272
      ---         BLOCKEND  ---      ---       LVL=0

      01006BCEH   BLOCK     CODE     ---       LVL=0
      02000688H   SYMBOL    XDATA    INT       n
      01006BCEH   LINE      CODE     ---       #277
      01006BD6H   LINE      CODE     ---       #278
      01006BD6H   LINE      CODE     ---       #279
      01006BF6H   LINE      CODE     ---       #280
      01006C16H   LINE      CODE     ---       #281
      01006C36H   LINE      CODE     ---       #282
      ---         BLOCKEND  ---      ---       LVL=0

      010060E7H   BLOCK     CODE     ---       LVL=0
      00000006H   SYMBOL    DATA     INT       n
      010060E7H   BLOCK     CODE     NEAR LAB  LVL=1
      0200068AH   SYMBOL    XDATA    BYTE      low
      0200068BH   SYMBOL    XDATA    BYTE      high
      0200068CH   SYMBOL    XDATA    INT       row
      ---         BLOCKEND  ---      ---       LVL=1
      010060E7H   LINE      CODE     ---       #287
      010060E7H   LINE      CODE     ---       #288
      010060E7H   LINE      CODE     ---       #289
      010060EEH   LINE      CODE     ---       #291
      010060F4H   LINE      CODE     ---       #294
      010060FEH   LINE      CODE     ---       #295
      01006108H   LINE      CODE     ---       #297
      01006122H   LINE      CODE     ---       #298
      0100613CH   LINE      CODE     ---       #299
      01006143H   LINE      CODE     ---       #302
      0100614DH   LINE      CODE     ---       #303
      01006157H   LINE      CODE     ---       #305
      01006171H   LINE      CODE     ---       #306
      0100618BH   LINE      CODE     ---       #307
      01006192H   LINE      CODE     ---       #310
      0100619CH   LINE      CODE     ---       #311
      010061A6H   LINE      CODE     ---       #313
      010061C0H   LINE      CODE     ---       #314
      010061DAH   LINE      CODE     ---       #315
      010061E1H   LINE      CODE     ---       #317
      ---         BLOCKEND  ---      ---       LVL=0

      010061E2H   BLOCK     CODE     ---       LVL=0
      00000006H   SYMBOL    DATA     INT       n
      010061E2H   BLOCK     CODE     NEAR LAB  LVL=1
      0200068AH   SYMBOL    XDATA    BYTE      low
LX51 LINKER/LOCATER V4.64.0.0                                                         09/27/2016  11:48:46  PAGE 55


      0200068BH   SYMBOL    XDATA    BYTE      high
      0200068CH   SYMBOL    XDATA    INT       row
      ---         BLOCKEND  ---      ---       LVL=1
      010061E2H   LINE      CODE     ---       #322
      010061E2H   LINE      CODE     ---       #323
      010061E9H   LINE      CODE     ---       #325
      010061EFH   LINE      CODE     ---       #328
      010061F9H   LINE      CODE     ---       #329
      01006203H   LINE      CODE     ---       #331
      0100621DH   LINE      CODE     ---       #332
      01006237H   LINE      CODE     ---       #333
      0100623EH   LINE      CODE     ---       #335
      01006248H   LINE      CODE     ---       #336
      01006252H   LINE      CODE     ---       #338
      0100626CH   LINE      CODE     ---       #339
      01006286H   LINE      CODE     ---       #340
      0100628DH   LINE      CODE     ---       #343
      01006297H   LINE      CODE     ---       #344
      010062A1H   LINE      CODE     ---       #346
      010062BBH   LINE      CODE     ---       #347
      010062D5H   LINE      CODE     ---       #349
      010062DCH   LINE      CODE     ---       #350
      ---         BLOCKEND  ---      ---       LVL=0

      010062DDH   BLOCK     CODE     ---       LVL=0
      00000006H   SYMBOL    DATA     INT       n
      010062DDH   BLOCK     CODE     NEAR LAB  LVL=1
      0200068AH   SYMBOL    XDATA    BYTE      low
      0200068BH   SYMBOL    XDATA    BYTE      high
      0200068CH   SYMBOL    XDATA    INT       row
      ---         BLOCKEND  ---      ---       LVL=1
      010062DDH   LINE      CODE     ---       #354
      010062DDH   LINE      CODE     ---       #357
      010062E5H   LINE      CODE     ---       #359
      010062EFH   LINE      CODE     ---       #360
      010062F9H   LINE      CODE     ---       #362
      01006313H   LINE      CODE     ---       #363
      0100632DH   LINE      CODE     ---       #364
      01006334H   LINE      CODE     ---       #366
      0100633EH   LINE      CODE     ---       #367
      01006348H   LINE      CODE     ---       #369
      01006362H   LINE      CODE     ---       #370
      0100637CH   LINE      CODE     ---       #371
      01006383H   LINE      CODE     ---       #373
      0100638DH   LINE      CODE     ---       #374
      01006397H   LINE      CODE     ---       #376
      010063B1H   LINE      CODE     ---       #377
      010063CBH   LINE      CODE     ---       #378
      010063D2H   LINE      CODE     ---       #379
      ---         BLOCKEND  ---      ---       LVL=0

      01006A6CH   BLOCK     CODE     ---       LVL=0
      00000006H   SYMBOL    DATA     INT       n
      01006A6CH   BLOCK     CODE     NEAR LAB  LVL=1
      0200050DH   SYMBOL    XDATA    BYTE      read
      0200050EH   SYMBOL    XDATA    INT       row
      ---         BLOCKEND  ---      ---       LVL=1
      01006A6CH   LINE      CODE     ---       #383
      01006A6CH   LINE      CODE     ---       #385
      01006A71H   LINE      CODE     ---       #386
      01006A77H   LINE      CODE     ---       #388
      01006A81H   LINE      CODE     ---       #389
      01006A9AH   LINE      CODE     ---       #390
      01006A9FH   LINE      CODE     ---       #392
      01006AA9H   LINE      CODE     ---       #393
LX51 LINKER/LOCATER V4.64.0.0                                                         09/27/2016  11:48:46  PAGE 56


      01006AC2H   LINE      CODE     ---       #394
      01006AC7H   LINE      CODE     ---       #396
      01006AD1H   LINE      CODE     ---       #397
      01006AEAH   LINE      CODE     ---       #398
      01006AEFH   LINE      CODE     ---       #400
      ---         BLOCKEND  ---      ---       LVL=0

      0100726EH   BLOCK     CODE     ---       LVL=0
      0200050DH   SYMBOL    XDATA    BYTE      address
      0200050EH   SYMBOL    XDATA    BYTE      dta
      0100726EH   LINE      CODE     ---       #514
      01007276H   LINE      CODE     ---       #516
      01007279H   LINE      CODE     ---       #517
      0100727CH   LINE      CODE     ---       #518
      0100727FH   LINE      CODE     ---       #519
      01007287H   LINE      CODE     ---       #520
      0100728EH   LINE      CODE     ---       #521
      01007296H   LINE      CODE     ---       #522
      0100729DH   LINE      CODE     ---       #523
      ---         BLOCKEND  ---      ---       LVL=0

      010075D2H   BLOCK     CODE     ---       LVL=0
      00000007H   SYMBOL    DATA     BYTE      address
      010075D2H   BLOCK     CODE     NEAR LAB  LVL=1
      00000007H   SYMBOL    DATA     BYTE      controlreg
      ---         BLOCKEND  ---      ---       LVL=1
      010075D2H   LINE      CODE     ---       #528
      010075D2H   LINE      CODE     ---       #532
      010075D9H   LINE      CODE     ---       #533
      010075DEH   LINE      CODE     ---       #534
      010075E5H   LINE      CODE     ---       #535
      010075E8H   LINE      CODE     ---       #536
      010075E8H   LINE      CODE     ---       #537
      ---         BLOCKEND  ---      ---       LVL=0

      ---         MODULE    ---      ---       UART_RS485
      020010CDH   PUBLIC    XDATA    BYTE      UART_RS485_errorStatus
      020010CCH   PUBLIC    XDATA    BYTE      UART_RS485_rxBufferOverflow
      020010CBH   PUBLIC    XDATA    BYTE      UART_RS485_initVar
      020010CAH   PUBLIC    XDATA    BYTE      UART_RS485_rxBufferWrite
      020010AAH   PUBLIC    XDATA    ---       UART_RS485_rxBuffer
      020010A9H   PUBLIC    XDATA    BYTE      UART_RS485_rxBufferRead
      020010A8H   PUBLIC    XDATA    BYTE      UART_RS485_rxBufferLoopDetect
      0100772BH   PUBLIC    CODE     ---       UART_RS485_ClearTxBuffer
      01007170H   PUBLIC    CODE     ---       _UART_RS485_PutString
      0100781FH   PUBLIC    CODE     ---       _UART_RS485_PutChar
      0100790AH   PUBLIC    CODE     ---       UART_RS485_ReadTxStatus
      0100729EH   PUBLIC    CODE     ---       UART_RS485_ClearRxBuffer
      01006E99H   PUBLIC    CODE     ---       UART_RS485_GetRxBufferSize
      01006C97H   PUBLIC    CODE     ---       UART_RS485_GetChar
      01007692H   PUBLIC    CODE     ---       UART_RS485_ReadRxStatus
      01007444H   PUBLIC    CODE     ---       UART_RS485_Stop
      01007422H   PUBLIC    CODE     ---       UART_RS485_Enable
      010071D8H   PUBLIC    CODE     ---       UART_RS485_Init
      010076A6H   PUBLIC    CODE     ---       UART_RS485_Start
      000000CAH   SFRSYM    DATA     BYTE      SFRPRT5SEL
      000000DAH   SFRSYM    DATA     BYTE      SFRPRT6SEL
      000000D0H.6 SFRSYM    DATA     BIT       AC
      000000A8H.7 SFRSYM    DATA     BIT       EA
      000000A8H   SFRSYM    DATA     BYTE      IE
      00000085H   SFRSYM    DATA     BYTE      DPH1
      00000084H   SFRSYM    DATA     BYTE      DPL1
      000000D0H.7 SFRSYM    DATA     BIT       CY
      000000A0H   SFRSYM    DATA     BYTE      P2AX
      00000095H   SFRSYM    DATA     BYTE      DPX1
LX51 LINKER/LOCATER V4.64.0.0                                                         09/27/2016  11:48:46  PAGE 57


      00000081H   SFRSYM    DATA     BYTE      SP
      000000D0H.2 SFRSYM    DATA     BIT       OV
      00000080H   SFRSYM    DATA     BYTE      SFRPRT0DR
      00000090H   SFRSYM    DATA     BYTE      SFRPRT1DR
      000000F2H   SFRSYM    DATA     BYTE      SFRPRT12SEL
      00000098H   SFRSYM    DATA     BYTE      SFRPRT2DR
      000000B0H   SFRSYM    DATA     BYTE      SFRPRT3DR
      000000C0H   SFRSYM    DATA     BYTE      SFRPRT4DR
      000000FAH   SFRSYM    DATA     BYTE      SFRPRT15SEL
      000000C8H   SFRSYM    DATA     BYTE      SFRPRT5DR
      000000D8H   SFRSYM    DATA     BYTE      SFRPRT6DR
      00000089H   SFRSYM    DATA     BYTE      SFRPRT0PS
      00000091H   SFRSYM    DATA     BYTE      SFRPRT1PS
      00000099H   SFRSYM    DATA     BYTE      SFRPRT2PS
      000000B1H   SFRSYM    DATA     BYTE      SFRPRT3PS
      000000C1H   SFRSYM    DATA     BYTE      SFRPRT4PS
      000000C9H   SFRSYM    DATA     BYTE      SFRPRT5PS
      000000D9H   SFRSYM    DATA     BYTE      SFRPRT6PS
      000000EAH   SFRSYM    DATA     BYTE      MXAX
      000000F0H   SFRSYM    DATA     BYTE      B
      000000E0H   SFRSYM    DATA     BYTE      ACC
      000000D0H   SFRSYM    DATA     BIT       P
      000000D0H.3 SFRSYM    DATA     BIT       RS0
      000000D0H.4 SFRSYM    DATA     BIT       RS1
      00000083H   SFRSYM    DATA     BYTE      DPH
      000000E8H   SFRSYM    DATA     BYTE      SFRPRT12DR
      00000082H   SFRSYM    DATA     BYTE      DPL
      000000F8H   SFRSYM    DATA     BYTE      SFRPRT15DR
      00000086H   SFRSYM    DATA     BYTE      DPS
      000000E9H   SFRSYM    DATA     BYTE      SFRPRT12PS
      00000093H   SFRSYM    DATA     BYTE      DPX
      000000F9H   SFRSYM    DATA     BYTE      SFRPRT15PS
      000000D0H.5 SFRSYM    DATA     BIT       F0
      000000D0H.1 SFRSYM    DATA     BIT       F1
      0000008AH   SFRSYM    DATA     BYTE      SFRPRT0SEL
      000000D0H   SFRSYM    DATA     BYTE      PSW
      000000A2H   SFRSYM    DATA     BYTE      SFRPRT1SEL
      0000009AH   SFRSYM    DATA     BYTE      SFRPRT2SEL
      000000B2H   SFRSYM    DATA     BYTE      SFRPRT3SEL
      000000C2H   SFRSYM    DATA     BYTE      SFRPRT4SEL

      010076A6H   BLOCK     CODE     ---       LVL=0
      010076A6H   LINE      CODE     ---       #76
      010076A6H   LINE      CODE     ---       #77
      010076A6H   LINE      CODE     ---       #79
      010076ACH   LINE      CODE     ---       #80
      010076ACH   LINE      CODE     ---       #81
      010076AFH   LINE      CODE     ---       #82
      010076B5H   LINE      CODE     ---       #83
      010076B5H   LINE      CODE     ---       #85
      010076B8H   LINE      CODE     ---       #86
      ---         BLOCKEND  ---      ---       LVL=0

      010071D8H   BLOCK     CODE     ---       LVL=0
      010071D8H   LINE      CODE     ---       #106
      010071D8H   LINE      CODE     ---       #107
      010071D8H   LINE      CODE     ---       #112
      010071E1H   LINE      CODE     ---       #113
      010071E8H   LINE      CODE     ---       #114
      010071EDH   LINE      CODE     ---       #124
      010071F3H   LINE      CODE     ---       #126
      010071F9H   LINE      CODE     ---       #138
      010071FFH   LINE      CODE     ---       #139
      01007205H   LINE      CODE     ---       #150
      0100720AH   LINE      CODE     ---       #160
LX51 LINKER/LOCATER V4.64.0.0                                                         09/27/2016  11:48:46  PAGE 58


      ---         BLOCKEND  ---      ---       LVL=0

      01007422H   BLOCK     CODE     ---       LVL=0
      01007422H   BLOCK     CODE     NEAR LAB  LVL=1
      00000007H   SYMBOL    DATA     BYTE      enableInterrupts
      ---         BLOCKEND  ---      ---       LVL=1
      01007422H   LINE      CODE     ---       #183
      01007422H   LINE      CODE     ---       #184
      01007422H   LINE      CODE     ---       #186
      01007425H   LINE      CODE     ---       #190
      0100742CH   LINE      CODE     ---       #193
      01007433H   LINE      CODE     ---       #196
      01007439H   LINE      CODE     ---       #211
      01007440H   LINE      CODE     ---       #222
      01007443H   LINE      CODE     ---       #223
      ---         BLOCKEND  ---      ---       LVL=0

      01007444H   BLOCK     CODE     ---       LVL=0
      01007444H   BLOCK     CODE     NEAR LAB  LVL=1
      00000007H   SYMBOL    DATA     BYTE      enableInterrupts
      ---         BLOCKEND  ---      ---       LVL=1
      01007444H   LINE      CODE     ---       #240
      01007444H   LINE      CODE     ---       #241
      01007444H   LINE      CODE     ---       #243
      01007447H   LINE      CODE     ---       #247
      0100744EH   LINE      CODE     ---       #262
      01007455H   LINE      CODE     ---       #265
      0100745BH   LINE      CODE     ---       #270
      01007462H   LINE      CODE     ---       #277
      01007465H   LINE      CODE     ---       #278
      ---         BLOCKEND  ---      ---       LVL=0
      00000007H   SYMBOL    DATA     BYTE      intSrc
      00000007H   SYMBOL    DATA     BYTE      rxData
      00000006H   SYMBOL    DATA     BYTE      locRxBufferRead
      00000005H   SYMBOL    DATA     BYTE      locRxBufferWrite

      01007692H   BLOCK     CODE     ---       LVL=0
      01007692H   BLOCK     CODE     NEAR LAB  LVL=1
      00000007H   SYMBOL    DATA     BYTE      status
      ---         BLOCKEND  ---      ---       LVL=1
      01007692H   LINE      CODE     ---       #485
      01007692H   LINE      CODE     ---       #486
      01007692H   LINE      CODE     ---       #489
      01007699H   LINE      CODE     ---       #492
      0100769FH   LINE      CODE     ---       #493
      0100769FH   LINE      CODE     ---       #494
      010076A3H   LINE      CODE     ---       #495
      010076A5H   LINE      CODE     ---       #496
      010076A5H   LINE      CODE     ---       #499
      010076A5H   LINE      CODE     ---       #500
      ---         BLOCKEND  ---      ---       LVL=0

      01006C97H   BLOCK     CODE     ---       LVL=0
      01006C97H   BLOCK     CODE     NEAR LAB  LVL=1
      00000007H   SYMBOL    DATA     BYTE      rxData
      00000006H   SYMBOL    DATA     BYTE      rxStatus
      00000006H   SYMBOL    DATA     BYTE      locRxBufferRead
      00000005H   SYMBOL    DATA     BYTE      locRxBufferWrite
      ---         BLOCKEND  ---      ---       LVL=1
      01006C97H   LINE      CODE     ---       #532
      01006C97H   LINE      CODE     ---       #533
      01006C97H   LINE      CODE     ---       #534
      01006C99H   LINE      CODE     ---       #542
      01006C9FH   LINE      CODE     ---       #544
      01006CA4H   LINE      CODE     ---       #545
LX51 LINKER/LOCATER V4.64.0.0                                                         09/27/2016  11:48:46  PAGE 59


      01006CA9H   LINE      CODE     ---       #547
      01006CB3H   LINE      CODE     ---       #548
      01006CB3H   LINE      CODE     ---       #549
      01006CBFH   LINE      CODE     ---       #550
      01006CC0H   LINE      CODE     ---       #551
      01006CC6H   LINE      CODE     ---       #552
      01006CC6H   LINE      CODE     ---       #553
      01006CC8H   LINE      CODE     ---       #554
      01006CC8H   LINE      CODE     ---       #556
      01006CCDH   LINE      CODE     ---       #558
      01006CD3H   LINE      CODE     ---       #559
      01006CD3H   LINE      CODE     ---       #560
      01006CD5H   LINE      CODE     ---       #575
      01006CD5H   LINE      CODE     ---       #577
      01006CD7H   LINE      CODE     ---       #579
      01006CDCH   LINE      CODE     ---       #580
      01006CDFH   LINE      CODE     ---       #581
      01006CDFH   LINE      CODE     ---       #582
      01006CE4H   LINE      CODE     ---       #585
      01006CE9H   LINE      CODE     ---       #586
      01006CE9H   LINE      CODE     ---       #587
      01006CEBH   LINE      CODE     ---       #588
      01006CEBH   LINE      CODE     ---       #589
      01006CEBH   LINE      CODE     ---       #590
      01006CEBH   LINE      CODE     ---       #592
      01006CF1H   LINE      CODE     ---       #611
      01006CF1H   LINE      CODE     ---       #612
      ---         BLOCKEND  ---      ---       LVL=0
      00000002H   SYMBOL    DATA     WORD      locErrorStatus

      01006E99H   BLOCK     CODE     ---       LVL=0
      01006E99H   BLOCK     CODE     NEAR LAB  LVL=1
      00000007H   SYMBOL    DATA     BYTE      size
      ---         BLOCKEND  ---      ---       LVL=1
      01006E99H   LINE      CODE     ---       #683
      01006E99H   LINE      CODE     ---       #685
      01006E99H   LINE      CODE     ---       #691
      01006E9FH   LINE      CODE     ---       #693
      01006EABH   LINE      CODE     ---       #694
      01006EABH   LINE      CODE     ---       #695
      01006EB1H   LINE      CODE     ---       #696
      01006EB1H   LINE      CODE     ---       #697
      01006EB3H   LINE      CODE     ---       #698
      01006EB5H   LINE      CODE     ---       #700
      01006EB5H   LINE      CODE     ---       #701
      01006EB7H   LINE      CODE     ---       #702
      01006EB7H   LINE      CODE     ---       #703
      01006EB9H   LINE      CODE     ---       #704
      01006EC6H   LINE      CODE     ---       #705
      01006EC6H   LINE      CODE     ---       #706
      01006ECFH   LINE      CODE     ---       #707
      01006ED1H   LINE      CODE     ---       #709
      01006ED1H   LINE      CODE     ---       #710
      01006EE1H   LINE      CODE     ---       #711
      01006EE1H   LINE      CODE     ---       #713
      01006EE7H   LINE      CODE     ---       #722
      01006EE7H   LINE      CODE     ---       #723
      ---         BLOCKEND  ---      ---       LVL=0

      0100729EH   BLOCK     CODE     ---       LVL=0
      0100729EH   BLOCK     CODE     NEAR LAB  LVL=1
      00000007H   SYMBOL    DATA     BYTE      enableInterrupts
      ---         BLOCKEND  ---      ---       LVL=1
      0100729EH   LINE      CODE     ---       #757
      0100729EH   LINE      CODE     ---       #758
LX51 LINKER/LOCATER V4.64.0.0                                                         09/27/2016  11:48:46  PAGE 60


      0100729EH   LINE      CODE     ---       #762
      010072A1H   LINE      CODE     ---       #763
      010072A8H   LINE      CODE     ---       #764
      010072ACH   LINE      CODE     ---       #765
      010072AFH   LINE      CODE     ---       #770
      010072B5H   LINE      CODE     ---       #772
      010072BAH   LINE      CODE     ---       #773
      010072BEH   LINE      CODE     ---       #774
      010072C2H   LINE      CODE     ---       #775
      010072C6H   LINE      CODE     ---       #777
      010072CCH   LINE      CODE     ---       #781
      ---         BLOCKEND  ---      ---       LVL=0
      00000007H   SYMBOL    DATA     BYTE      address
      00000007H   SYMBOL    DATA     BYTE      address
      00000007H   SYMBOL    DATA     BYTE      intSrc
      00000007H   SYMBOL    DATA     BYTE      txDataByte

      0100790AH   BLOCK     CODE     ---       LVL=0
      0100790AH   LINE      CODE     ---       #1003
      0100790AH   LINE      CODE     ---       #1004
      0100790AH   LINE      CODE     ---       #1005
      0100790FH   LINE      CODE     ---       #1006
      ---         BLOCKEND  ---      ---       LVL=0

      0100781FH   BLOCK     CODE     ---       LVL=0
      00000007H   SYMBOL    DATA     BYTE      txDataByte
      0100781FH   LINE      CODE     ---       #1041
      0100781FH   LINE      CODE     ---       #1042
      0100781FH   LINE      CODE     ---       #1107
      01007826H   LINE      CODE     ---       #1108
      01007826H   LINE      CODE     ---       #1110
      01007826H   LINE      CODE     ---       #1113
      0100782BH   LINE      CODE     ---       #1116
      ---         BLOCKEND  ---      ---       LVL=0

      01007170H   BLOCK     CODE     ---       LVL=0
      02000005H   SYMBOL    XDATA    ---       string
      0100717BH   BLOCK     CODE     NEAR LAB  LVL=1
      00000004H   SYMBOL    DATA     WORD      bufIndex
      ---         BLOCKEND  ---      ---       LVL=1
      01007170H   LINE      CODE     ---       #1145
      0100717BH   LINE      CODE     ---       #1146
      0100717BH   LINE      CODE     ---       #1147
      0100717EH   LINE      CODE     ---       #1150
      01007184H   LINE      CODE     ---       #1151
      01007184H   LINE      CODE     ---       #1153
      01007199H   LINE      CODE     ---       #1154
      01007199H   LINE      CODE     ---       #1155
      0100719CH   LINE      CODE     ---       #1156
      010071A1H   LINE      CODE     ---       #1157
      010071A3H   LINE      CODE     ---       #1158
      010071A3H   LINE      CODE     ---       #1159
      ---         BLOCKEND  ---      ---       LVL=0
      00000005H   SYMBOL    DATA     BYTE      byteCount
      00000006H   SYMBOL    DATA     BYTE      bufIndex
      00000007H   SYMBOL    DATA     BYTE      txDataByte
      00000007H   SYMBOL    DATA     BYTE      size

      0100772BH   BLOCK     CODE     ---       LVL=0
      0100772BH   BLOCK     CODE     NEAR LAB  LVL=1
      00000007H   SYMBOL    DATA     BYTE      enableInterrupts
      ---         BLOCKEND  ---      ---       LVL=1
      0100772BH   LINE      CODE     ---       #1354
      0100772BH   LINE      CODE     ---       #1355
      0100772BH   LINE      CODE     ---       #1358
LX51 LINKER/LOCATER V4.64.0.0                                                         09/27/2016  11:48:46  PAGE 61


      0100772EH   LINE      CODE     ---       #1360
      01007735H   LINE      CODE     ---       #1361
      01007739H   LINE      CODE     ---       #1362
      0100773CH   LINE      CODE     ---       #1376
      ---         BLOCKEND  ---      ---       LVL=0
      00000007H   SYMBOL    DATA     BYTE      retMode
      020010A7H   SYMBOL    XDATA    BYTE      txPeriod

      ---         MODULE    ---      ---       ISR_RS485_RX
      010078E0H   PUBLIC    CODE     ---       ISR_RS485_RX_Disable
      010078D9H   PUBLIC    CODE     ---       ISR_RS485_RX_Enable
      0100786AH   PUBLIC    CODE     ---       _ISR_RS485_RX_SetPriority
      010077CBH   PUBLIC    CODE     ---       _ISR_RS485_RX_SetVector
      0100797FH   PUBLIC    CODE     ---       ISR_RS485_RX_Interrupt
      010074A6H   PUBLIC    CODE     ---       _ISR_RS485_RX_StartEx
      000000CAH   SFRSYM    DATA     BYTE      SFRPRT5SEL
      000000DAH   SFRSYM    DATA     BYTE      SFRPRT6SEL
      000000D0H.6 SFRSYM    DATA     BIT       AC
      000000A8H.7 SFRSYM    DATA     BIT       EA
      000000A8H   SFRSYM    DATA     BYTE      IE
      00000085H   SFRSYM    DATA     BYTE      DPH1
      00000084H   SFRSYM    DATA     BYTE      DPL1
      000000D0H.7 SFRSYM    DATA     BIT       CY
      000000A0H   SFRSYM    DATA     BYTE      P2AX
      00000095H   SFRSYM    DATA     BYTE      DPX1
      00000081H   SFRSYM    DATA     BYTE      SP
      000000D0H.2 SFRSYM    DATA     BIT       OV
      00000080H   SFRSYM    DATA     BYTE      SFRPRT0DR
      00000090H   SFRSYM    DATA     BYTE      SFRPRT1DR
      000000F2H   SFRSYM    DATA     BYTE      SFRPRT12SEL
      00000098H   SFRSYM    DATA     BYTE      SFRPRT2DR
      000000B0H   SFRSYM    DATA     BYTE      SFRPRT3DR
      000000C0H   SFRSYM    DATA     BYTE      SFRPRT4DR
      000000FAH   SFRSYM    DATA     BYTE      SFRPRT15SEL
      000000C8H   SFRSYM    DATA     BYTE      SFRPRT5DR
      000000D8H   SFRSYM    DATA     BYTE      SFRPRT6DR
      00000089H   SFRSYM    DATA     BYTE      SFRPRT0PS
      00000091H   SFRSYM    DATA     BYTE      SFRPRT1PS
      00000099H   SFRSYM    DATA     BYTE      SFRPRT2PS
      000000B1H   SFRSYM    DATA     BYTE      SFRPRT3PS
      000000C1H   SFRSYM    DATA     BYTE      SFRPRT4PS
      000000C9H   SFRSYM    DATA     BYTE      SFRPRT5PS
      000000D9H   SFRSYM    DATA     BYTE      SFRPRT6PS
      000000EAH   SFRSYM    DATA     BYTE      MXAX
      000000F0H   SFRSYM    DATA     BYTE      B
      000000E0H   SFRSYM    DATA     BYTE      ACC
      000000D0H   SFRSYM    DATA     BIT       P
      000000D0H.3 SFRSYM    DATA     BIT       RS0
      000000D0H.4 SFRSYM    DATA     BIT       RS1
      00000083H   SFRSYM    DATA     BYTE      DPH
      000000E8H   SFRSYM    DATA     BYTE      SFRPRT12DR
      00000082H   SFRSYM    DATA     BYTE      DPL
      000000F8H   SFRSYM    DATA     BYTE      SFRPRT15DR
      00000086H   SFRSYM    DATA     BYTE      DPS
      000000E9H   SFRSYM    DATA     BYTE      SFRPRT12PS
      00000093H   SFRSYM    DATA     BYTE      DPX
      000000F9H   SFRSYM    DATA     BYTE      SFRPRT15PS
      000000D0H.5 SFRSYM    DATA     BIT       F0
      000000D0H.1 SFRSYM    DATA     BIT       F1
      0000008AH   SFRSYM    DATA     BYTE      SFRPRT0SEL
      000000D0H   SFRSYM    DATA     BYTE      PSW
      000000A2H   SFRSYM    DATA     BYTE      SFRPRT1SEL
      0000009AH   SFRSYM    DATA     BYTE      SFRPRT2SEL
      000000B2H   SFRSYM    DATA     BYTE      SFRPRT3SEL
      000000C2H   SFRSYM    DATA     BYTE      SFRPRT4SEL
LX51 LINKER/LOCATER V4.64.0.0                                                         09/27/2016  11:48:46  PAGE 62



      010074A6H   BLOCK     CODE     ---       LVL=0
      02000005H   SYMBOL    XDATA    ---       address
      010074A6H   LINE      CODE     ---       #94
      010074AEH   LINE      CODE     ---       #95
      010074AEH   LINE      CODE     ---       #97
      010074B1H   LINE      CODE     ---       #100
      010074BCH   LINE      CODE     ---       #103
      010074C1H   LINE      CODE     ---       #106
      010074C4H   LINE      CODE     ---       #107
      ---         BLOCKEND  ---      ---       LVL=0

      0100797FH   BLOCK     CODE     ---       LVL=0
      0100797FH   LINE      CODE     ---       #151
      0100797FH   LINE      CODE     ---       #168
      ---         BLOCKEND  ---      ---       LVL=0

      010077CBH   BLOCK     CODE     ---       LVL=0
      00000006H   SYMBOL    DATA     ---       address
      010077CBH   LINE      CODE     ---       #198
      010077CBH   LINE      CODE     ---       #199
      010077CBH   LINE      CODE     ---       #200
      010077D8H   LINE      CODE     ---       #201
      ---         BLOCKEND  ---      ---       LVL=0

      0100786AH   BLOCK     CODE     ---       LVL=0
      00000007H   SYMBOL    DATA     BYTE      priority
      0100786AH   LINE      CODE     ---       #248
      0100786AH   LINE      CODE     ---       #249
      0100786AH   LINE      CODE     ---       #250
      01007873H   LINE      CODE     ---       #251
      ---         BLOCKEND  ---      ---       LVL=0
      00000007H   SYMBOL    DATA     BYTE      priority

      010078D9H   BLOCK     CODE     ---       LVL=0
      010078D9H   LINE      CODE     ---       #297
      010078D9H   LINE      CODE     ---       #298
      010078D9H   LINE      CODE     ---       #300
      010078DFH   LINE      CODE     ---       #301
      ---         BLOCKEND  ---      ---       LVL=0

      010078E0H   BLOCK     CODE     ---       LVL=0
      010078E0H   LINE      CODE     ---       #339
      010078E0H   LINE      CODE     ---       #340
      010078E0H   LINE      CODE     ---       #342
      010078E6H   LINE      CODE     ---       #343
      ---         BLOCKEND  ---      ---       LVL=0

      ---         MODULE    ---      ---       PACER_TIMER
      02001109H   PUBLIC    XDATA    BYTE      PACER_TIMER_initVar
      010077E7H   PUBLIC    CODE     ---       _PACER_TIMER_WriteCounter
      010077D9H   PUBLIC    CODE     ---       _PACER_TIMER_WritePeriod
      01007910H   PUBLIC    CODE     ---       _PACER_TIMER_SetInterruptMode
      010076B9H   PUBLIC    CODE     ---       PACER_TIMER_Start
      010075E9H   PUBLIC    CODE     ---       PACER_TIMER_Enable
      0100708BH   PUBLIC    CODE     ---       PACER_TIMER_Init
      000000CAH   SFRSYM    DATA     BYTE      SFRPRT5SEL
      000000DAH   SFRSYM    DATA     BYTE      SFRPRT6SEL
      000000D0H.6 SFRSYM    DATA     BIT       AC
      000000A8H.7 SFRSYM    DATA     BIT       EA
      000000A8H   SFRSYM    DATA     BYTE      IE
      00000085H   SFRSYM    DATA     BYTE      DPH1
      00000084H   SFRSYM    DATA     BYTE      DPL1
      000000D0H.7 SFRSYM    DATA     BIT       CY
      000000A0H   SFRSYM    DATA     BYTE      P2AX
LX51 LINKER/LOCATER V4.64.0.0                                                         09/27/2016  11:48:46  PAGE 63


      00000095H   SFRSYM    DATA     BYTE      DPX1
      00000081H   SFRSYM    DATA     BYTE      SP
      000000D0H.2 SFRSYM    DATA     BIT       OV
      00000080H   SFRSYM    DATA     BYTE      SFRPRT0DR
      00000090H   SFRSYM    DATA     BYTE      SFRPRT1DR
      000000F2H   SFRSYM    DATA     BYTE      SFRPRT12SEL
      00000098H   SFRSYM    DATA     BYTE      SFRPRT2DR
      000000B0H   SFRSYM    DATA     BYTE      SFRPRT3DR
      000000C0H   SFRSYM    DATA     BYTE      SFRPRT4DR
      000000FAH   SFRSYM    DATA     BYTE      SFRPRT15SEL
      000000C8H   SFRSYM    DATA     BYTE      SFRPRT5DR
      000000D8H   SFRSYM    DATA     BYTE      SFRPRT6DR
      00000089H   SFRSYM    DATA     BYTE      SFRPRT0PS
      00000091H   SFRSYM    DATA     BYTE      SFRPRT1PS
      00000099H   SFRSYM    DATA     BYTE      SFRPRT2PS
      000000B1H   SFRSYM    DATA     BYTE      SFRPRT3PS
      000000C1H   SFRSYM    DATA     BYTE      SFRPRT4PS
      000000C9H   SFRSYM    DATA     BYTE      SFRPRT5PS
      000000D9H   SFRSYM    DATA     BYTE      SFRPRT6PS
      000000EAH   SFRSYM    DATA     BYTE      MXAX
      000000F0H   SFRSYM    DATA     BYTE      B
      000000E0H   SFRSYM    DATA     BYTE      ACC
      000000D0H   SFRSYM    DATA     BIT       P
      000000D0H.3 SFRSYM    DATA     BIT       RS0
      000000D0H.4 SFRSYM    DATA     BIT       RS1
      00000083H   SFRSYM    DATA     BYTE      DPH
      000000E8H   SFRSYM    DATA     BYTE      SFRPRT12DR
      00000082H   SFRSYM    DATA     BYTE      DPL
      000000F8H   SFRSYM    DATA     BYTE      SFRPRT15DR
      00000086H   SFRSYM    DATA     BYTE      DPS
      000000E9H   SFRSYM    DATA     BYTE      SFRPRT12PS
      00000093H   SFRSYM    DATA     BYTE      DPX
      000000F9H   SFRSYM    DATA     BYTE      SFRPRT15PS
      000000D0H.5 SFRSYM    DATA     BIT       F0
      000000D0H.1 SFRSYM    DATA     BIT       F1
      0000008AH   SFRSYM    DATA     BYTE      SFRPRT0SEL
      000000D0H   SFRSYM    DATA     BYTE      PSW
      000000A2H   SFRSYM    DATA     BYTE      SFRPRT1SEL
      0000009AH   SFRSYM    DATA     BYTE      SFRPRT2SEL
      000000B2H   SFRSYM    DATA     BYTE      SFRPRT3SEL
      000000C2H   SFRSYM    DATA     BYTE      SFRPRT4SEL

      0100708BH   BLOCK     CODE     ---       LVL=0
      0100708BH   LINE      CODE     ---       #43
      0100708BH   LINE      CODE     ---       #44
      0100708BH   LINE      CODE     ---       #52
      01007092H   LINE      CODE     ---       #60
      01007099H   LINE      CODE     ---       #106
      010070A0H   LINE      CODE     ---       #107
      010070A4H   LINE      CODE     ---       #110
      010070A8H   LINE      CODE     ---       #111
      010070ACH   LINE      CODE     ---       #114
      010070B3H   LINE      CODE     ---       #118
      010070BAH   LINE      CODE     ---       #119
      010070C1H   LINE      CODE     ---       #162
      010070C6H   LINE      CODE     ---       #163
      ---         BLOCKEND  ---      ---       LVL=0

      010075E9H   BLOCK     CODE     ---       LVL=0
      010075E9H   LINE      CODE     ---       #180
      010075E9H   LINE      CODE     ---       #181
      010075E9H   LINE      CODE     ---       #184
      010075F0H   LINE      CODE     ---       #185
      010075F7H   LINE      CODE     ---       #190
      010075FEH   LINE      CODE     ---       #192
LX51 LINKER/LOCATER V4.64.0.0                                                         09/27/2016  11:48:46  PAGE 64


      ---         BLOCKEND  ---      ---       LVL=0

      010076B9H   BLOCK     CODE     ---       LVL=0
      010076B9H   LINE      CODE     ---       #215
      010076B9H   LINE      CODE     ---       #216
      010076B9H   LINE      CODE     ---       #217
      010076BFH   LINE      CODE     ---       #218
      010076BFH   LINE      CODE     ---       #219
      010076C2H   LINE      CODE     ---       #221
      010076C8H   LINE      CODE     ---       #222
      010076C8H   LINE      CODE     ---       #225
      010076CBH   LINE      CODE     ---       #226
      ---         BLOCKEND  ---      ---       LVL=0

      01007910H   BLOCK     CODE     ---       LVL=0
      00000007H   SYMBOL    DATA     BYTE      interruptMode
      01007910H   LINE      CODE     ---       #279
      01007910H   LINE      CODE     ---       #280
      01007910H   LINE      CODE     ---       #281
      01007915H   LINE      CODE     ---       #282
      ---         BLOCKEND  ---      ---       LVL=0
      00000007H   SYMBOL    DATA     BYTE      control

      010077D9H   BLOCK     CODE     ---       LVL=0
      00000006H   SYMBOL    DATA     WORD      period
      010077D9H   BLOCK     CODE     NEAR LAB  LVL=1
      00000006H   SYMBOL    DATA     WORD      period_temp
      ---         BLOCKEND  ---      ---       LVL=1
      010077D9H   LINE      CODE     ---       #431
      010077D9H   LINE      CODE     ---       #432
      010077D9H   LINE      CODE     ---       #434
      010077D9H   LINE      CODE     ---       #435
      010077E6H   LINE      CODE     ---       #439
      ---         BLOCKEND  ---      ---       LVL=0

      010077E7H   BLOCK     CODE     ---       LVL=0
      00000006H   SYMBOL    DATA     WORD      counter
      010077E7H   LINE      CODE     ---       #480
      010077E7H   LINE      CODE     ---       #481
      010077E7H   LINE      CODE     ---       #486
      010077F4H   LINE      CODE     ---       #491
      ---         BLOCKEND  ---      ---       LVL=0

      ---         MODULE    ---      ---       CLOCK_UART
      010078BAH   PUBLIC    CODE     ---       CLOCK_UART_GetSourceRegister
      01007874H   PUBLIC    CODE     ---       CLOCK_UART_GetDividerRegister
      01005971H   PUBLIC    CODE     ---       _CLOCK_UART_SetDividerRegister
      00000007H   SYMBOL    DATA     BYTE      state

      01005971H   BLOCK     CODE     ---       LVL=0
      02000005H   SYMBOL    XDATA    WORD      clkDivider
      02000007H   SYMBOL    XDATA    BYTE      restart
      0100597CH   BLOCK     CODE     NEAR LAB  LVL=1
      02000008H   SYMBOL    XDATA    BYTE      enabled
      02000009H   SYMBOL    XDATA    BYTE      currSrc
      0200000AH   SYMBOL    XDATA    WORD      oldDivider
      ---         BLOCKEND  ---      ---       LVL=1
      01005971H   LINE      CODE     ---       #193
      0100597CH   LINE      CODE     ---       #195
      0100597CH   LINE      CODE     ---       #198
      01005984H   LINE      CODE     ---       #199
      0100598FH   LINE      CODE     ---       #201
      010059A1H   LINE      CODE     ---       #202
      010059A1H   LINE      CODE     ---       #203
      010059ABH   LINE      CODE     ---       #205
LX51 LINKER/LOCATER V4.64.0.0                                                         09/27/2016  11:48:46  PAGE 65


      010059BCH   LINE      CODE     ---       #206
      010059BCH   LINE      CODE     ---       #208
      010059C0H   LINE      CODE     ---       #209
      010059C0H   LINE      CODE     ---       #213
      010059C9H   LINE      CODE     ---       #214
      010059D0H   LINE      CODE     ---       #215
      010059D1H   LINE      CODE     ---       #217
      010059D1H   LINE      CODE     ---       #220
      010059D8H   LINE      CODE     ---       #221
      010059E9H   LINE      CODE     ---       #222
      010059E9H   LINE      CODE     ---       #223
      010059EAH   LINE      CODE     ---       #225
      010059EAH   LINE      CODE     ---       #227
      010059F0H   LINE      CODE     ---       #228
      010059F0H   LINE      CODE     ---       #229
      010059F5H   LINE      CODE     ---       #236
      010059FAH   LINE      CODE     ---       #237
      010059FFH   LINE      CODE     ---       #240
      01005A06H   LINE      CODE     ---       #243
      01005A18H   LINE      CODE     ---       #244
      01005A18H   LINE      CODE     ---       #246
      01005A29H   LINE      CODE     ---       #247
      01005A2FH   LINE      CODE     ---       #250
      01005A37H   LINE      CODE     ---       #253
      01005A3EH   LINE      CODE     ---       #257
      01005A43H   LINE      CODE     ---       #259
      01005A43H   LINE      CODE     ---       #260
      01005A43H   LINE      CODE     ---       #263
      01005A4BH   LINE      CODE     ---       #264
      01005A4BH   LINE      CODE     ---       #266
      01005A5CH   LINE      CODE     ---       #268
      01005A6FH   LINE      CODE     ---       #269
      01005A79H   LINE      CODE     ---       #270
      01005A7AH   LINE      CODE     ---       #272
      01005A7AH   LINE      CODE     ---       #274
      01005A8BH   LINE      CODE     ---       #275
      01005AA0H   LINE      CODE     ---       #276
      01005AA0H   LINE      CODE     ---       #277
      01005AA0H   LINE      CODE     ---       #278
      01005AA0H   LINE      CODE     ---       #279
      ---         BLOCKEND  ---      ---       LVL=0

      01007874H   BLOCK     CODE     ---       LVL=0
      01007874H   LINE      CODE     ---       #297
      01007874H   LINE      CODE     ---       #298
      01007874H   LINE      CODE     ---       #299
      0100787DH   LINE      CODE     ---       #300
      ---         BLOCKEND  ---      ---       LVL=0
      00000007H   SYMBOL    DATA     BYTE      modeBitMask
      00000007H   SYMBOL    DATA     BYTE      modeBitMask
      00000007H   SYMBOL    DATA     BYTE      oldSrc

      010078BAH   BLOCK     CODE     ---       LVL=0
      010078BAH   LINE      CODE     ---       #464
      010078BAH   LINE      CODE     ---       #465
      010078BAH   LINE      CODE     ---       #466
      010078C1H   LINE      CODE     ---       #467
      ---         BLOCKEND  ---      ---       LVL=0

      ---         MODULE    ---      ---       EEPROM
      010064C5H   PUBLIC    CODE     ---       _EEPROM_Write
      0100796AH   PUBLIC    CODE     ---       EEPROM_Start
      010078E7H   PUBLIC    CODE     ---       EEPROM_Enable
      000000CAH   SFRSYM    DATA     BYTE      SFRPRT5SEL
      000000DAH   SFRSYM    DATA     BYTE      SFRPRT6SEL
LX51 LINKER/LOCATER V4.64.0.0                                                         09/27/2016  11:48:46  PAGE 66


      000000D0H.6 SFRSYM    DATA     BIT       AC
      000000A8H.7 SFRSYM    DATA     BIT       EA
      000000A8H   SFRSYM    DATA     BYTE      IE
      00000085H   SFRSYM    DATA     BYTE      DPH1
      00000084H   SFRSYM    DATA     BYTE      DPL1
      000000D0H.7 SFRSYM    DATA     BIT       CY
      000000A0H   SFRSYM    DATA     BYTE      P2AX
      00000095H   SFRSYM    DATA     BYTE      DPX1
      00000081H   SFRSYM    DATA     BYTE      SP
      000000D0H.2 SFRSYM    DATA     BIT       OV
      00000080H   SFRSYM    DATA     BYTE      SFRPRT0DR
      00000090H   SFRSYM    DATA     BYTE      SFRPRT1DR
      000000F2H   SFRSYM    DATA     BYTE      SFRPRT12SEL
      00000098H   SFRSYM    DATA     BYTE      SFRPRT2DR
      000000B0H   SFRSYM    DATA     BYTE      SFRPRT3DR
      000000C0H   SFRSYM    DATA     BYTE      SFRPRT4DR
      000000FAH   SFRSYM    DATA     BYTE      SFRPRT15SEL
      000000C8H   SFRSYM    DATA     BYTE      SFRPRT5DR
      000000D8H   SFRSYM    DATA     BYTE      SFRPRT6DR
      00000089H   SFRSYM    DATA     BYTE      SFRPRT0PS
      00000091H   SFRSYM    DATA     BYTE      SFRPRT1PS
      00000099H   SFRSYM    DATA     BYTE      SFRPRT2PS
      000000B1H   SFRSYM    DATA     BYTE      SFRPRT3PS
      000000C1H   SFRSYM    DATA     BYTE      SFRPRT4PS
      000000C9H   SFRSYM    DATA     BYTE      SFRPRT5PS
      000000D9H   SFRSYM    DATA     BYTE      SFRPRT6PS
      000000EAH   SFRSYM    DATA     BYTE      MXAX
      000000F0H   SFRSYM    DATA     BYTE      B
      000000E0H   SFRSYM    DATA     BYTE      ACC
      000000D0H   SFRSYM    DATA     BIT       P
      000000D0H.3 SFRSYM    DATA     BIT       RS0
      000000D0H.4 SFRSYM    DATA     BIT       RS1
      00000083H   SFRSYM    DATA     BYTE      DPH
      000000E8H   SFRSYM    DATA     BYTE      SFRPRT12DR
      00000082H   SFRSYM    DATA     BYTE      DPL
      000000F8H   SFRSYM    DATA     BYTE      SFRPRT15DR
      00000086H   SFRSYM    DATA     BYTE      DPS
      000000E9H   SFRSYM    DATA     BYTE      SFRPRT12PS
      00000093H   SFRSYM    DATA     BYTE      DPX
      000000F9H   SFRSYM    DATA     BYTE      SFRPRT15PS
      000000D0H.5 SFRSYM    DATA     BIT       F0
      000000D0H.1 SFRSYM    DATA     BIT       F1
      0000008AH   SFRSYM    DATA     BYTE      SFRPRT0SEL
      000000D0H   SFRSYM    DATA     BYTE      PSW
      000000A2H   SFRSYM    DATA     BYTE      SFRPRT1SEL
      0000009AH   SFRSYM    DATA     BYTE      SFRPRT2SEL
      000000B2H   SFRSYM    DATA     BYTE      SFRPRT3SEL
      000000C2H   SFRSYM    DATA     BYTE      SFRPRT4SEL

      010078E7H   BLOCK     CODE     ---       LVL=0
      010078E7H   LINE      CODE     ---       #33
      010078E7H   LINE      CODE     ---       #34
      010078E7H   LINE      CODE     ---       #36
      010078EAH   LINE      CODE     ---       #39
      010078EDH   LINE      CODE     ---       #40
      ---         BLOCKEND  ---      ---       LVL=0

      0100796AH   BLOCK     CODE     ---       LVL=0
      0100796AH   LINE      CODE     ---       #57
      0100796AH   LINE      CODE     ---       #58
      0100796AH   LINE      CODE     ---       #59
      0100796DH   LINE      CODE     ---       #60
      ---         BLOCKEND  ---      ---       LVL=0

      010064C5H   BLOCK     CODE     ---       LVL=0
LX51 LINKER/LOCATER V4.64.0.0                                                         09/27/2016  11:48:46  PAGE 67


      0200000DH   SYMBOL    XDATA    ---       rowData
      02000010H   SYMBOL    XDATA    BYTE      rowNumber
      010064D3H   BLOCK     CODE     NEAR LAB  LVL=1
      02000011H   SYMBOL    XDATA    BYTE      status
      ---         BLOCKEND  ---      ---       LVL=1
      010064C5H   LINE      CODE     ---       #345
      010064D3H   LINE      CODE     ---       #346
      010064D3H   LINE      CODE     ---       #349
      010064D6H   LINE      CODE     ---       #351
      010064E2H   LINE      CODE     ---       #352
      010064E2H   LINE      CODE     ---       #354
      010064EBH   LINE      CODE     ---       #355
      010064EBH   LINE      CODE     ---       #357
      010064F1H   LINE      CODE     ---       #360
      0100650FH   LINE      CODE     ---       #361
      0100650FH   LINE      CODE     ---       #362
      01006517H   LINE      CODE     ---       #363
      01006517H   LINE      CODE     ---       #365
      01006517H   LINE      CODE     ---       #368
      0100652DH   LINE      CODE     ---       #369
      0100652DH   LINE      CODE     ---       #370
      01006531H   LINE      CODE     ---       #371
      01006531H   LINE      CODE     ---       #374
      01006537H   LINE      CODE     ---       #375
      01006537H   LINE      CODE     ---       #376
      01006553H   LINE      CODE     ---       #378
      01006553H   LINE      CODE     ---       #380
      01006559H   LINE      CODE     ---       #382
      01006561H   LINE      CODE     ---       #383
      01006561H   LINE      CODE     ---       #385
      01006561H   LINE      CODE     ---       #388
      01006577H   LINE      CODE     ---       #389
      01006577H   LINE      CODE     ---       #390
      0100657BH   LINE      CODE     ---       #391
      0100657BH   LINE      CODE     ---       #392
      0100657DH   LINE      CODE     ---       #394
      0100657DH   LINE      CODE     ---       #395
      01006583H   LINE      CODE     ---       #396
      01006583H   LINE      CODE     ---       #397
      01006585H   LINE      CODE     ---       #399
      01006585H   LINE      CODE     ---       #400
      0100658BH   LINE      CODE     ---       #401
      0100658BH   LINE      CODE     ---       #402
      0100658BH   LINE      CODE     ---       #405
      0100658EH   LINE      CODE     ---       #406
      01006590H   LINE      CODE     ---       #408
      01006590H   LINE      CODE     ---       #409
      01006596H   LINE      CODE     ---       #410
      01006596H   LINE      CODE     ---       #411
      01006598H   LINE      CODE     ---       #413
      01006598H   LINE      CODE     ---       #414
      0100659EH   LINE      CODE     ---       #415
      0100659EH   LINE      CODE     ---       #417
      010065A3H   LINE      CODE     ---       #418
      ---         BLOCKEND  ---      ---       LVL=0

      ---         MODULE    ---      ---       RS485_CTS
      01007916H   PUBLIC    CODE     ---       _RS485_CTS_Write

      01007916H   BLOCK     CODE     ---       LVL=0
      00000007H   SYMBOL    DATA     BYTE      control
      01007916H   LINE      CODE     ---       #37
      01007916H   LINE      CODE     ---       #38
      01007916H   LINE      CODE     ---       #39
      0100791BH   LINE      CODE     ---       #40
LX51 LINKER/LOCATER V4.64.0.0                                                         09/27/2016  11:48:46  PAGE 68


      ---         BLOCKEND  ---      ---       LVL=0

      ---         MODULE    ---      ---       BOOTLOADABLE
      0100787EH   PUBLIC    CODE     ---       Bootloadable_Load
      000000CAH   SFRSYM    DATA     BYTE      SFRPRT5SEL
      000000DAH   SFRSYM    DATA     BYTE      SFRPRT6SEL
      000000D0H.6 SFRSYM    DATA     BIT       AC
      000000A8H.7 SFRSYM    DATA     BIT       EA
      000000A8H   SFRSYM    DATA     BYTE      IE
      00000085H   SFRSYM    DATA     BYTE      DPH1
      00000084H   SFRSYM    DATA     BYTE      DPL1
      000000D0H.7 SFRSYM    DATA     BIT       CY
      000000A0H   SFRSYM    DATA     BYTE      P2AX
      00000095H   SFRSYM    DATA     BYTE      DPX1
      00000081H   SFRSYM    DATA     BYTE      SP
      000000D0H.2 SFRSYM    DATA     BIT       OV
      00000080H   SFRSYM    DATA     BYTE      SFRPRT0DR
      00000090H   SFRSYM    DATA     BYTE      SFRPRT1DR
      000000F2H   SFRSYM    DATA     BYTE      SFRPRT12SEL
      00000098H   SFRSYM    DATA     BYTE      SFRPRT2DR
      000000B0H   SFRSYM    DATA     BYTE      SFRPRT3DR
      000000C0H   SFRSYM    DATA     BYTE      SFRPRT4DR
      000000FAH   SFRSYM    DATA     BYTE      SFRPRT15SEL
      000000C8H   SFRSYM    DATA     BYTE      SFRPRT5DR
      000000D8H   SFRSYM    DATA     BYTE      SFRPRT6DR
      00000089H   SFRSYM    DATA     BYTE      SFRPRT0PS
      00000091H   SFRSYM    DATA     BYTE      SFRPRT1PS
      00000099H   SFRSYM    DATA     BYTE      SFRPRT2PS
      000000B1H   SFRSYM    DATA     BYTE      SFRPRT3PS
      000000C1H   SFRSYM    DATA     BYTE      SFRPRT4PS
      000000C9H   SFRSYM    DATA     BYTE      SFRPRT5PS
      000000D9H   SFRSYM    DATA     BYTE      SFRPRT6PS
      000000EAH   SFRSYM    DATA     BYTE      MXAX
      000000F0H   SFRSYM    DATA     BYTE      B
      000000E0H   SFRSYM    DATA     BYTE      ACC
      000000D0H   SFRSYM    DATA     BIT       P
      000000D0H.3 SFRSYM    DATA     BIT       RS0
      000000D0H.4 SFRSYM    DATA     BIT       RS1
      00000083H   SFRSYM    DATA     BYTE      DPH
      000000E8H   SFRSYM    DATA     BYTE      SFRPRT12DR
      00000082H   SFRSYM    DATA     BYTE      DPL
      000000F8H   SFRSYM    DATA     BYTE      SFRPRT15DR
      00000086H   SFRSYM    DATA     BYTE      DPS
      000000E9H   SFRSYM    DATA     BYTE      SFRPRT12PS
      00000093H   SFRSYM    DATA     BYTE      DPX
      000000F9H   SFRSYM    DATA     BYTE      SFRPRT15PS
      000000D0H.5 SFRSYM    DATA     BIT       F0
      000000D0H.1 SFRSYM    DATA     BIT       F1
      0000008AH   SFRSYM    DATA     BYTE      SFRPRT0SEL
      000000D0H   SFRSYM    DATA     BYTE      PSW
      000000A2H   SFRSYM    DATA     BYTE      SFRPRT1SEL
      0000009AH   SFRSYM    DATA     BYTE      SFRPRT2SEL
      000000B2H   SFRSYM    DATA     BYTE      SFRPRT3SEL
      000000C2H   SFRSYM    DATA     BYTE      SFRPRT4SEL

      0100787EH   BLOCK     CODE     ---       LVL=0
      0100787EH   LINE      CODE     ---       #41
      0100787EH   LINE      CODE     ---       #42
      0100787EH   LINE      CODE     ---       #44
      01007884H   LINE      CODE     ---       #46
      01007887H   LINE      CODE     ---       #47
      ---         BLOCKEND  ---      ---       LVL=0
      00000002H   SYMBOL    DATA     WORD      idx

      ---         MODULE    ---      ---       FTDI_ENABLE_REG
LX51 LINKER/LOCATER V4.64.0.0                                                         09/27/2016  11:48:46  PAGE 69


      0100791CH   PUBLIC    CODE     ---       _FTDI_ENABLE_REG_Write

      0100791CH   BLOCK     CODE     ---       LVL=0
      00000007H   SYMBOL    DATA     BYTE      control
      0100791CH   LINE      CODE     ---       #37
      0100791CH   LINE      CODE     ---       #38
      0100791CH   LINE      CODE     ---       #39
      01007921H   LINE      CODE     ---       #40
      ---         BLOCKEND  ---      ---       LVL=0

      ---         MODULE    ---      ---       RESET_FF
      01007922H   PUBLIC    CODE     ---       _RESET_FF_Write

      01007922H   BLOCK     CODE     ---       LVL=0
      00000007H   SYMBOL    DATA     BYTE      control
      01007922H   LINE      CODE     ---       #37
      01007922H   LINE      CODE     ---       #38
      01007922H   LINE      CODE     ---       #39
      01007927H   LINE      CODE     ---       #40
      ---         BLOCKEND  ---      ---       LVL=0

      ---         MODULE    ---      ---       FF_STATUS
      01007928H   PUBLIC    CODE     ---       FF_STATUS_Read
      000000CAH   SFRSYM    DATA     BYTE      SFRPRT5SEL
      000000DAH   SFRSYM    DATA     BYTE      SFRPRT6SEL
      000000D0H.6 SFRSYM    DATA     BIT       AC
      000000A8H.7 SFRSYM    DATA     BIT       EA
      000000A8H   SFRSYM    DATA     BYTE      IE
      00000085H   SFRSYM    DATA     BYTE      DPH1
      00000084H   SFRSYM    DATA     BYTE      DPL1
      000000D0H.7 SFRSYM    DATA     BIT       CY
      000000A0H   SFRSYM    DATA     BYTE      P2AX
      00000095H   SFRSYM    DATA     BYTE      DPX1
      00000081H   SFRSYM    DATA     BYTE      SP
      000000D0H.2 SFRSYM    DATA     BIT       OV
      00000080H   SFRSYM    DATA     BYTE      SFRPRT0DR
      00000090H   SFRSYM    DATA     BYTE      SFRPRT1DR
      000000F2H   SFRSYM    DATA     BYTE      SFRPRT12SEL
      00000098H   SFRSYM    DATA     BYTE      SFRPRT2DR
      000000B0H   SFRSYM    DATA     BYTE      SFRPRT3DR
      000000C0H   SFRSYM    DATA     BYTE      SFRPRT4DR
      000000FAH   SFRSYM    DATA     BYTE      SFRPRT15SEL
      000000C8H   SFRSYM    DATA     BYTE      SFRPRT5DR
      000000D8H   SFRSYM    DATA     BYTE      SFRPRT6DR
      00000089H   SFRSYM    DATA     BYTE      SFRPRT0PS
      00000091H   SFRSYM    DATA     BYTE      SFRPRT1PS
      00000099H   SFRSYM    DATA     BYTE      SFRPRT2PS
      000000B1H   SFRSYM    DATA     BYTE      SFRPRT3PS
      000000C1H   SFRSYM    DATA     BYTE      SFRPRT4PS
      000000C9H   SFRSYM    DATA     BYTE      SFRPRT5PS
      000000D9H   SFRSYM    DATA     BYTE      SFRPRT6PS
      000000EAH   SFRSYM    DATA     BYTE      MXAX
      000000F0H   SFRSYM    DATA     BYTE      B
      000000E0H   SFRSYM    DATA     BYTE      ACC
      000000D0H   SFRSYM    DATA     BIT       P
      000000D0H.3 SFRSYM    DATA     BIT       RS0
      000000D0H.4 SFRSYM    DATA     BIT       RS1
      00000083H   SFRSYM    DATA     BYTE      DPH
      000000E8H   SFRSYM    DATA     BYTE      SFRPRT12DR
      00000082H   SFRSYM    DATA     BYTE      DPL
      000000F8H   SFRSYM    DATA     BYTE      SFRPRT15DR
      00000086H   SFRSYM    DATA     BYTE      DPS
      000000E9H   SFRSYM    DATA     BYTE      SFRPRT12PS
      00000093H   SFRSYM    DATA     BYTE      DPX
      000000F9H   SFRSYM    DATA     BYTE      SFRPRT15PS
LX51 LINKER/LOCATER V4.64.0.0                                                         09/27/2016  11:48:46  PAGE 70


      000000D0H.5 SFRSYM    DATA     BIT       F0
      000000D0H.1 SFRSYM    DATA     BIT       F1
      0000008AH   SFRSYM    DATA     BYTE      SFRPRT0SEL
      000000D0H   SFRSYM    DATA     BYTE      PSW
      000000A2H   SFRSYM    DATA     BYTE      SFRPRT1SEL
      0000009AH   SFRSYM    DATA     BYTE      SFRPRT2SEL
      000000B2H   SFRSYM    DATA     BYTE      SFRPRT3SEL
      000000C2H   SFRSYM    DATA     BYTE      SFRPRT4SEL

      01007928H   BLOCK     CODE     ---       LVL=0
      01007928H   LINE      CODE     ---       #37
      01007928H   LINE      CODE     ---       #38
      01007928H   LINE      CODE     ---       #39
      0100792DH   LINE      CODE     ---       #40
      ---         BLOCKEND  ---      ---       LVL=0
      00000007H   SYMBOL    DATA     BYTE      interruptState
      00000007H   SYMBOL    DATA     BYTE      interruptState
      00000007H   SYMBOL    DATA     BYTE      mask

      ---         MODULE    ---      ---       MY_TIMER
      0200110AH   PUBLIC    XDATA    BYTE      MY_TIMER_initVar
      0100782CH   PUBLIC    CODE     ---       MY_TIMER_ClearFIFO
      01007771H   PUBLIC    CODE     ---       MY_TIMER_ReadCounter
      0100789CH   PUBLIC    CODE     ---       _MY_TIMER_WriteCounter
      01007892H   PUBLIC    CODE     ---       MY_TIMER_ReadCapture
      01007888H   PUBLIC    CODE     ---       _MY_TIMER_WritePeriod
      01007934H   PUBLIC    CODE     ---       MY_TIMER_ReadStatusRegister
      0100792EH   PUBLIC    CODE     ---       _MY_TIMER_SetInterruptMode
      010076CCH   PUBLIC    CODE     ---       MY_TIMER_Start
      010078C2H   PUBLIC    CODE     ---       MY_TIMER_Enable
      01007359H   PUBLIC    CODE     ---       MY_TIMER_Init
      000000CAH   SFRSYM    DATA     BYTE      SFRPRT5SEL
      000000DAH   SFRSYM    DATA     BYTE      SFRPRT6SEL
      000000D0H.6 SFRSYM    DATA     BIT       AC
      000000A8H.7 SFRSYM    DATA     BIT       EA
      000000A8H   SFRSYM    DATA     BYTE      IE
      00000085H   SFRSYM    DATA     BYTE      DPH1
      00000084H   SFRSYM    DATA     BYTE      DPL1
      000000D0H.7 SFRSYM    DATA     BIT       CY
      000000A0H   SFRSYM    DATA     BYTE      P2AX
      00000095H   SFRSYM    DATA     BYTE      DPX1
      00000081H   SFRSYM    DATA     BYTE      SP
      000000D0H.2 SFRSYM    DATA     BIT       OV
      00000080H   SFRSYM    DATA     BYTE      SFRPRT0DR
      00000090H   SFRSYM    DATA     BYTE      SFRPRT1DR
      000000F2H   SFRSYM    DATA     BYTE      SFRPRT12SEL
      00000098H   SFRSYM    DATA     BYTE      SFRPRT2DR
      000000B0H   SFRSYM    DATA     BYTE      SFRPRT3DR
      000000C0H   SFRSYM    DATA     BYTE      SFRPRT4DR
      000000FAH   SFRSYM    DATA     BYTE      SFRPRT15SEL
      000000C8H   SFRSYM    DATA     BYTE      SFRPRT5DR
      000000D8H   SFRSYM    DATA     BYTE      SFRPRT6DR
      00000089H   SFRSYM    DATA     BYTE      SFRPRT0PS
      00000091H   SFRSYM    DATA     BYTE      SFRPRT1PS
      00000099H   SFRSYM    DATA     BYTE      SFRPRT2PS
      000000B1H   SFRSYM    DATA     BYTE      SFRPRT3PS
      000000C1H   SFRSYM    DATA     BYTE      SFRPRT4PS
      000000C9H   SFRSYM    DATA     BYTE      SFRPRT5PS
      000000D9H   SFRSYM    DATA     BYTE      SFRPRT6PS
      000000EAH   SFRSYM    DATA     BYTE      MXAX
      000000F0H   SFRSYM    DATA     BYTE      B
      000000E0H   SFRSYM    DATA     BYTE      ACC
      000000D0H   SFRSYM    DATA     BIT       P
      000000D0H.3 SFRSYM    DATA     BIT       RS0
      000000D0H.4 SFRSYM    DATA     BIT       RS1
LX51 LINKER/LOCATER V4.64.0.0                                                         09/27/2016  11:48:46  PAGE 71


      00000083H   SFRSYM    DATA     BYTE      DPH
      000000E8H   SFRSYM    DATA     BYTE      SFRPRT12DR
      00000082H   SFRSYM    DATA     BYTE      DPL
      000000F8H   SFRSYM    DATA     BYTE      SFRPRT15DR
      00000086H   SFRSYM    DATA     BYTE      DPS
      000000E9H   SFRSYM    DATA     BYTE      SFRPRT12PS
      00000093H   SFRSYM    DATA     BYTE      DPX
      000000F9H   SFRSYM    DATA     BYTE      SFRPRT15PS
      000000D0H.5 SFRSYM    DATA     BIT       F0
      000000D0H.1 SFRSYM    DATA     BIT       F1
      0000008AH   SFRSYM    DATA     BYTE      SFRPRT0SEL
      000000D0H   SFRSYM    DATA     BYTE      PSW
      000000A2H   SFRSYM    DATA     BYTE      SFRPRT1SEL
      0000009AH   SFRSYM    DATA     BYTE      SFRPRT2SEL
      000000B2H   SFRSYM    DATA     BYTE      SFRPRT3SEL
      000000C2H   SFRSYM    DATA     BYTE      SFRPRT4SEL

      01007359H   BLOCK     CODE     ---       LVL=0
      01007359H   BLOCK     CODE     NEAR LAB  LVL=1
      00000007H   SYMBOL    DATA     BYTE      MY_TIMER_interruptState
      ---         BLOCKEND  ---      ---       LVL=1
      01007359H   LINE      CODE     ---       #43
      01007359H   LINE      CODE     ---       #44
      01007359H   LINE      CODE     ---       #118
      01007364H   LINE      CODE     ---       #119
      0100736FH   LINE      CODE     ---       #142
      01007372H   LINE      CODE     ---       #145
      01007379H   LINE      CODE     ---       #148
      0100737CH   LINE      CODE     ---       #159
      0100737FH   LINE      CODE     ---       #162
      01007384H   LINE      CODE     ---       #163
      ---         BLOCKEND  ---      ---       LVL=0

      010078C2H   BLOCK     CODE     ---       LVL=0
      010078C2H   LINE      CODE     ---       #180
      010078C2H   LINE      CODE     ---       #181
      010078C2H   LINE      CODE     ---       #190
      010078C9H   LINE      CODE     ---       #192
      ---         BLOCKEND  ---      ---       LVL=0

      010076CCH   BLOCK     CODE     ---       LVL=0
      010076CCH   LINE      CODE     ---       #215
      010076CCH   LINE      CODE     ---       #216
      010076CCH   LINE      CODE     ---       #217
      010076D2H   LINE      CODE     ---       #218
      010076D2H   LINE      CODE     ---       #219
      010076D5H   LINE      CODE     ---       #221
      010076DBH   LINE      CODE     ---       #222
      010076DBH   LINE      CODE     ---       #225
      010076DEH   LINE      CODE     ---       #226
      ---         BLOCKEND  ---      ---       LVL=0

      0100792EH   BLOCK     CODE     ---       LVL=0
      00000007H   SYMBOL    DATA     BYTE      interruptMode
      0100792EH   LINE      CODE     ---       #279
      0100792EH   LINE      CODE     ---       #280
      0100792EH   LINE      CODE     ---       #281
      01007933H   LINE      CODE     ---       #282
      ---         BLOCKEND  ---      ---       LVL=0

      01007934H   BLOCK     CODE     ---       LVL=0
      01007934H   LINE      CODE     ---       #333
      01007934H   LINE      CODE     ---       #334
      01007934H   LINE      CODE     ---       #335
      01007939H   LINE      CODE     ---       #336
LX51 LINKER/LOCATER V4.64.0.0                                                         09/27/2016  11:48:46  PAGE 72


      ---         BLOCKEND  ---      ---       LVL=0
      00000007H   SYMBOL    DATA     BYTE      control

      01007888H   BLOCK     CODE     ---       LVL=0
      00000004H   SYMBOL    DATA     DWORD     period
      01007888H   LINE      CODE     ---       #431
      01007888H   LINE      CODE     ---       #432
      01007888H   LINE      CODE     ---       #437
      01007891H   LINE      CODE     ---       #439
      ---         BLOCKEND  ---      ---       LVL=0

      01007892H   BLOCK     CODE     ---       LVL=0
      01007892H   LINE      CODE     ---       #456
      01007892H   LINE      CODE     ---       #457
      01007892H   LINE      CODE     ---       #461
      0100789BH   LINE      CODE     ---       #463
      ---         BLOCKEND  ---      ---       LVL=0

      0100789CH   BLOCK     CODE     ---       LVL=0
      00000004H   SYMBOL    DATA     DWORD     counter
      0100789CH   LINE      CODE     ---       #480
      0100789CH   LINE      CODE     ---       #481
      0100789CH   LINE      CODE     ---       #489
      010078A5H   LINE      CODE     ---       #491
      ---         BLOCKEND  ---      ---       LVL=0

      01007771H   BLOCK     CODE     ---       LVL=0
      01007771H   LINE      CODE     ---       #508
      01007771H   LINE      CODE     ---       #509
      01007771H   LINE      CODE     ---       #516
      01007776H   LINE      CODE     ---       #523
      0100777FH   LINE      CODE     ---       #525
      ---         BLOCKEND  ---      ---       LVL=0

      0100782CH   BLOCK     CODE     ---       LVL=0
      0100782CH   LINE      CODE     ---       #763
      0100782CH   LINE      CODE     ---       #764
      0100782CH   LINE      CODE     ---       #765
      01007833H   LINE      CODE     ---       #766
      01007833H   LINE      CODE     ---       #767
      01007836H   LINE      CODE     ---       #768
      01007838H   LINE      CODE     ---       #769
      ---         BLOCKEND  ---      ---       LVL=0

      ---         MODULE    ---      ---       CYFLASH
      02001100H   PUBLIC    XDATA    ---       dieTemperature
      0100723DH   PUBLIC    CODE     ---       CyEEPROM_Start
      010075A2H   PUBLIC    CODE     ---       CySetTemp
      000000CAH   SFRSYM    DATA     BYTE      SFRPRT5SEL
      000000DAH   SFRSYM    DATA     BYTE      SFRPRT6SEL
      000000D0H.6 SFRSYM    DATA     BIT       AC
      000000A8H.7 SFRSYM    DATA     BIT       EA
      000000A8H   SFRSYM    DATA     BYTE      IE
      00000085H   SFRSYM    DATA     BYTE      DPH1
      00000084H   SFRSYM    DATA     BYTE      DPL1
      000000D0H.7 SFRSYM    DATA     BIT       CY
      000000A0H   SFRSYM    DATA     BYTE      P2AX
      00000095H   SFRSYM    DATA     BYTE      DPX1
      00000081H   SFRSYM    DATA     BYTE      SP
      000000D0H.2 SFRSYM    DATA     BIT       OV
      00000080H   SFRSYM    DATA     BYTE      SFRPRT0DR
      00000090H   SFRSYM    DATA     BYTE      SFRPRT1DR
      000000F2H   SFRSYM    DATA     BYTE      SFRPRT12SEL
      00000098H   SFRSYM    DATA     BYTE      SFRPRT2DR
      000000B0H   SFRSYM    DATA     BYTE      SFRPRT3DR
LX51 LINKER/LOCATER V4.64.0.0                                                         09/27/2016  11:48:46  PAGE 73


      000000C0H   SFRSYM    DATA     BYTE      SFRPRT4DR
      000000FAH   SFRSYM    DATA     BYTE      SFRPRT15SEL
      000000C8H   SFRSYM    DATA     BYTE      SFRPRT5DR
      000000D8H   SFRSYM    DATA     BYTE      SFRPRT6DR
      00000089H   SFRSYM    DATA     BYTE      SFRPRT0PS
      00000091H   SFRSYM    DATA     BYTE      SFRPRT1PS
      00000099H   SFRSYM    DATA     BYTE      SFRPRT2PS
      000000B1H   SFRSYM    DATA     BYTE      SFRPRT3PS
      000000C1H   SFRSYM    DATA     BYTE      SFRPRT4PS
      000000C9H   SFRSYM    DATA     BYTE      SFRPRT5PS
      000000D9H   SFRSYM    DATA     BYTE      SFRPRT6PS
      000000EAH   SFRSYM    DATA     BYTE      MXAX
      000000F0H   SFRSYM    DATA     BYTE      B
      000000E0H   SFRSYM    DATA     BYTE      ACC
      000000D0H   SFRSYM    DATA     BIT       P
      000000D0H.3 SFRSYM    DATA     BIT       RS0
      000000D0H.4 SFRSYM    DATA     BIT       RS1
      00000083H   SFRSYM    DATA     BYTE      DPH
      000000E8H   SFRSYM    DATA     BYTE      SFRPRT12DR
      00000082H   SFRSYM    DATA     BYTE      DPL
      000000F8H   SFRSYM    DATA     BYTE      SFRPRT15DR
      00000086H   SFRSYM    DATA     BYTE      DPS
      000000E9H   SFRSYM    DATA     BYTE      SFRPRT12PS
      00000093H   SFRSYM    DATA     BYTE      DPX
      000000F9H   SFRSYM    DATA     BYTE      SFRPRT15PS
      000000D0H.5 SFRSYM    DATA     BIT       F0
      000000D0H.1 SFRSYM    DATA     BIT       F1
      0000008AH   SFRSYM    DATA     BYTE      SFRPRT0SEL
      000000D0H   SFRSYM    DATA     BYTE      PSW
      000000A2H   SFRSYM    DATA     BYTE      SFRPRT1SEL
      0000009AH   SFRSYM    DATA     BYTE      SFRPRT2SEL
      000000B2H   SFRSYM    DATA     BYTE      SFRPRT3SEL
      000000C2H   SFRSYM    DATA     BYTE      SFRPRT4SEL
      01006E49H   SYMBOL    CODE     ---       CyFlashGetSpcAlgorithm
      01006D4BH   SYMBOL    CODE     ---       CySetTempInt
      020010FDH   SYMBOL    XDATA    ---       rowBuffer
      00000007H   SYMBOL    DATA     BYTE      interruptState
      00000007H   SYMBOL    DATA     BYTE      interruptState

      01006D4BH   BLOCK     CODE     ---       LVL=0
      01006D4BH   BLOCK     CODE     NEAR LAB  LVL=1
      0200000EH   SYMBOL    XDATA    BYTE      status
      ---         BLOCKEND  ---      ---       LVL=1
      01006D4BH   LINE      CODE     ---       #155
      01006D4BH   LINE      CODE     ---       #156
      01006D4BH   LINE      CODE     ---       #160
      01006D4EH   LINE      CODE     ---       #163
      01006D54H   LINE      CODE     ---       #165
      01006D5AH   LINE      CODE     ---       #166
      01006D5AH   LINE      CODE     ---       #168
      01006D64H   LINE      CODE     ---       #169
      01006D64H   LINE      CODE     ---       #171
      01006D64H   LINE      CODE     ---       #172
      01006D73H   LINE      CODE     ---       #173
      01006D73H   LINE      CODE     ---       #174
      01006D78H   LINE      CODE     ---       #176
      01006D80H   LINE      CODE     ---       #177
      01006D80H   LINE      CODE     ---       #179
      01006D86H   LINE      CODE     ---       #180
      01006D88H   LINE      CODE     ---       #181
      01006D88H   LINE      CODE     ---       #182
      01006D88H   LINE      CODE     ---       #184
      01006D90H   LINE      CODE     ---       #185
      01006D90H   LINE      CODE     ---       #187
      01006D93H   LINE      CODE     ---       #188
LX51 LINKER/LOCATER V4.64.0.0                                                         09/27/2016  11:48:46  PAGE 74


      01006D95H   LINE      CODE     ---       #190
      01006D95H   LINE      CODE     ---       #191
      01006D9BH   LINE      CODE     ---       #192
      01006D9BH   LINE      CODE     ---       #194
      01006DA0H   LINE      CODE     ---       #195
      ---         BLOCKEND  ---      ---       LVL=0

      01006E49H   BLOCK     CODE     ---       LVL=0
      01006E49H   BLOCK     CODE     NEAR LAB  LVL=1
      0200000EH   SYMBOL    XDATA    BYTE      status
      ---         BLOCKEND  ---      ---       LVL=1
      01006E49H   LINE      CODE     ---       #215
      01006E49H   LINE      CODE     ---       #216
      01006E49H   LINE      CODE     ---       #220
      01006E4CH   LINE      CODE     ---       #222
      01006E52H   LINE      CODE     ---       #223
      01006E52H   LINE      CODE     ---       #224
      01006E5AH   LINE      CODE     ---       #226
      01006E5EH   LINE      CODE     ---       #227
      01006E5EH   LINE      CODE     ---       #228
      01006E66H   LINE      CODE     ---       #229
      01006E66H   LINE      CODE     ---       #231
      01006E6CH   LINE      CODE     ---       #232
      01006E6EH   LINE      CODE     ---       #234
      01006E84H   LINE      CODE     ---       #235
      01006E84H   LINE      CODE     ---       #236
      01006E88H   LINE      CODE     ---       #237
      01006E88H   LINE      CODE     ---       #238
      01006E88H   LINE      CODE     ---       #239
      01006E8BH   LINE      CODE     ---       #240
      01006E8DH   LINE      CODE     ---       #242
      01006E8DH   LINE      CODE     ---       #243
      01006E93H   LINE      CODE     ---       #244
      01006E93H   LINE      CODE     ---       #246
      01006E98H   LINE      CODE     ---       #247
      ---         BLOCKEND  ---      ---       LVL=0

      010075A2H   BLOCK     CODE     ---       LVL=0
      010075A2H   BLOCK     CODE     NEAR LAB  LVL=1
      0200000DH   SYMBOL    XDATA    BYTE      status
      ---         BLOCKEND  ---      ---       LVL=1
      010075A2H   LINE      CODE     ---       #273
      010075A2H   LINE      CODE     ---       #274
      010075A2H   LINE      CODE     ---       #275
      010075AAH   LINE      CODE     ---       #277
      010075ACH   LINE      CODE     ---       #278
      010075ACH   LINE      CODE     ---       #279
      010075B4H   LINE      CODE     ---       #280
      010075B4H   LINE      CODE     ---       #282
      010075B9H   LINE      CODE     ---       #283
      ---         BLOCKEND  ---      ---       LVL=0
      00000004H   SYMBOL    DATA     WORD      rowAddress
      00000001H   SYMBOL    DATA     ---       rowData
      00000007H   SYMBOL    DATA     BYTE      status
      00000007H   SYMBOL    DATA     BYTE      interruptState

      0100723DH   BLOCK     CODE     ---       LVL=0
      0100723DH   BLOCK     CODE     NEAR LAB  LVL=1
      00000007H   SYMBOL    DATA     BYTE      interruptState
      ---         BLOCKEND  ---      ---       LVL=1
      0100723DH   LINE      CODE     ---       #636
      0100723DH   LINE      CODE     ---       #637
      0100723DH   LINE      CODE     ---       #640
      01007240H   LINE      CODE     ---       #647
      01007247H   LINE      CODE     ---       #648
LX51 LINKER/LOCATER V4.64.0.0                                                         09/27/2016  11:48:46  PAGE 75


      0100724EH   LINE      CODE     ---       #661
      01007254H   LINE      CODE     ---       #668
      0100725BH   LINE      CODE     ---       #669
      01007262H   LINE      CODE     ---       #671
      0100726AH   LINE      CODE     ---       #672
      0100726AH   LINE      CODE     ---       #674
      0100726AH   LINE      CODE     ---       #676
      0100726DH   LINE      CODE     ---       #677
      ---         BLOCKEND  ---      ---       LVL=0
      00000007H   SYMBOL    DATA     BYTE      interruptState

      ---         MODULE    ---      ---       CYLIB
      020010F9H   PUBLIC    XDATA    DWORD     cydelay_32k_ms
      020010F8H   PUBLIC    XDATA    BYTE      CyResetStatus
      020010F4H   PUBLIC    XDATA    DWORD     cydelay_freq_hz
      020010F3H   PUBLIC    XDATA    BYTE      cydelay_freq_mhz
      020010EFH   PUBLIC    XDATA    DWORD     cydelay_freq_khz
      01007570H   PUBLIC    CODE     ---       _CyIntSetPriority
      01006DA1H   PUBLIC    CODE     ---       _CyIntSetVector
      010069E4H   PUBLIC    CODE     ---       _?CyDelay
      010078CAH   PUBLIC    CODE     ---       CySoftwareReset
      000000CAH   SFRSYM    DATA     BYTE      SFRPRT5SEL
      000000DAH   SFRSYM    DATA     BYTE      SFRPRT6SEL
      000000D0H.6 SFRSYM    DATA     BIT       AC
      000000A8H.7 SFRSYM    DATA     BIT       EA
      000000A8H   SFRSYM    DATA     BYTE      IE
      00000085H   SFRSYM    DATA     BYTE      DPH1
      00000084H   SFRSYM    DATA     BYTE      DPL1
      000000D0H.7 SFRSYM    DATA     BIT       CY
      000000A0H   SFRSYM    DATA     BYTE      P2AX
      00000095H   SFRSYM    DATA     BYTE      DPX1
      00000081H   SFRSYM    DATA     BYTE      SP
      000000D0H.2 SFRSYM    DATA     BIT       OV
      00000080H   SFRSYM    DATA     BYTE      SFRPRT0DR
      00000090H   SFRSYM    DATA     BYTE      SFRPRT1DR
      000000F2H   SFRSYM    DATA     BYTE      SFRPRT12SEL
      00000098H   SFRSYM    DATA     BYTE      SFRPRT2DR
      000000B0H   SFRSYM    DATA     BYTE      SFRPRT3DR
      000000C0H   SFRSYM    DATA     BYTE      SFRPRT4DR
      000000FAH   SFRSYM    DATA     BYTE      SFRPRT15SEL
      000000C8H   SFRSYM    DATA     BYTE      SFRPRT5DR
      000000D8H   SFRSYM    DATA     BYTE      SFRPRT6DR
      00000089H   SFRSYM    DATA     BYTE      SFRPRT0PS
      00000091H   SFRSYM    DATA     BYTE      SFRPRT1PS
      00000099H   SFRSYM    DATA     BYTE      SFRPRT2PS
      000000B1H   SFRSYM    DATA     BYTE      SFRPRT3PS
      000000C1H   SFRSYM    DATA     BYTE      SFRPRT4PS
      000000C9H   SFRSYM    DATA     BYTE      SFRPRT5PS
      000000D9H   SFRSYM    DATA     BYTE      SFRPRT6PS
      000000EAH   SFRSYM    DATA     BYTE      MXAX
      000000F0H   SFRSYM    DATA     BYTE      B
      000000E0H   SFRSYM    DATA     BYTE      ACC
      000000D0H   SFRSYM    DATA     BIT       P
      000000D0H.3 SFRSYM    DATA     BIT       RS0
      000000D0H.4 SFRSYM    DATA     BIT       RS1
      00000083H   SFRSYM    DATA     BYTE      DPH
      000000E8H   SFRSYM    DATA     BYTE      SFRPRT12DR
      00000082H   SFRSYM    DATA     BYTE      DPL
      000000F8H   SFRSYM    DATA     BYTE      SFRPRT15DR
      00000086H   SFRSYM    DATA     BYTE      DPS
      000000E9H   SFRSYM    DATA     BYTE      SFRPRT12PS
      00000093H   SFRSYM    DATA     BYTE      DPX
      000000F9H   SFRSYM    DATA     BYTE      SFRPRT15PS
      000000D0H.5 SFRSYM    DATA     BIT       F0
      000000D0H.1 SFRSYM    DATA     BIT       F1
LX51 LINKER/LOCATER V4.64.0.0                                                         09/27/2016  11:48:46  PAGE 76


      0000008AH   SFRSYM    DATA     BYTE      SFRPRT0SEL
      000000D0H   SFRSYM    DATA     BYTE      PSW
      000000A2H   SFRSYM    DATA     BYTE      SFRPRT1SEL
      0000009AH   SFRSYM    DATA     BYTE      SFRPRT2SEL
      000000B2H   SFRSYM    DATA     BYTE      SFRPRT3SEL
      000000C2H   SFRSYM    DATA     BYTE      SFRPRT4SEL
      00000007H   SYMBOL    DATA     BYTE      wait
      00000007H   SYMBOL    DATA     BYTE      pDiv
      00000005H   SYMBOL    DATA     BYTE      qDiv
      00000003H   SYMBOL    DATA     BYTE      current
      00000007H   SYMBOL    DATA     BYTE      source
      00000007H   SYMBOL    DATA     BYTE      wait
      00000007H   SYMBOL    DATA     BYTE      poweredOn
      00000006H   SYMBOL    DATA     BYTE      freq
      00000007H   SYMBOL    DATA     BYTE      source
      00000007H   SYMBOL    DATA     BYTE      source
      00000007H   SYMBOL    DATA     BYTE      divider
      00000006H   SYMBOL    DATA     WORD      divider
      00000005H   SYMBOL    DATA     BYTE      masterClkDiv
      00000006H   SYMBOL    DATA     WORD      busClkDiv
      00000001H   SYMBOL    DATA     BYTE      interruptState
      00000007H   SYMBOL    DATA     BYTE      divider
      00000007H   SYMBOL    DATA     BYTE      source
      00000007H   SYMBOL    DATA     BYTE      source
      00000007H   SYMBOL    DATA     BYTE      mode
      00000006H   SYMBOL    DATA     BYTE      state
      00000007H   SYMBOL    DATA     BYTE      mode
      00000007H   SYMBOL    DATA     BYTE      wait
      00000007H   SYMBOL    DATA     BYTE      setting
      00000007H   SYMBOL    DATA     BYTE      setting
      00000007H   SYMBOL    DATA     BYTE      setting
      00000000H   SYMBOL    XSTK     BYTE      reason

      010078CAH   BLOCK     CODE     ---       LVL=0
      010078CAH   LINE      CODE     ---       #1666
      010078CAH   LINE      CODE     ---       #1667
      010078CAH   LINE      CODE     ---       #1668
      010078D1H   LINE      CODE     ---       #1669
      ---         BLOCKEND  ---      ---       LVL=0

      010069E4H   BLOCK     CODE     ---       LVL=0
      00000000H   SYMBOL    XSTK     DWORD     milliseconds
      010069E4H   LINE      CODE     ---       #1692
      010069EDH   LINE      CODE     ---       #1694
      01006A03H   LINE      CODE     ---       #1695
      01006A03H   LINE      CODE     ---       #1700
      01006A14H   LINE      CODE     ---       #1701
      01006A3EH   LINE      CODE     ---       #1702
      01006A40H   LINE      CODE     ---       #1704
      01006A65H   LINE      CODE     ---       #1705
      ---         BLOCKEND  ---      ---       LVL=0
      00000000H   SYMBOL    XSTK     DWORD     freq
      00000007H   SYMBOL    DATA     BYTE      ticks
      00000005H   SYMBOL    DATA     BYTE      lpMode
      020010EEH   SYMBOL    XDATA    BYTE      interruptStatus
      00000005H   SYMBOL    DATA     BYTE      interruptState
      00000005H   SYMBOL    DATA     BYTE      interruptState
      00000003H   SYMBOL    DATA     BYTE      interruptState

      01006DA1H   BLOCK     CODE     ---       LVL=0
      02000005H   SYMBOL    XDATA    BYTE      number
      02000006H   SYMBOL    XDATA    ---       address
      01006DAEH   BLOCK     CODE     NEAR LAB  LVL=1
      02000008H   SYMBOL    XDATA    ---       oldIsr
      ---         BLOCKEND  ---      ---       LVL=1
LX51 LINKER/LOCATER V4.64.0.0                                                         09/27/2016  11:48:46  PAGE 77


      01006DA1H   LINE      CODE     ---       #2641
      01006DAEH   LINE      CODE     ---       #2642
      01006DAEH   LINE      CODE     ---       #2648
      01006DCCH   LINE      CODE     ---       #2652
      01006DECH   LINE      CODE     ---       #2654
      01006DF4H   LINE      CODE     ---       #2655
      ---         BLOCKEND  ---      ---       LVL=0
      00000007H   SYMBOL    DATA     BYTE      number

      01007570H   BLOCK     CODE     ---       LVL=0
      00000004H   SYMBOL    DATA     BYTE      number
      00000005H   SYMBOL    DATA     BYTE      priority
      01007570H   LINE      CODE     ---       #2696
      01007572H   LINE      CODE     ---       #2697
      01007572H   LINE      CODE     ---       #2702
      01007588H   LINE      CODE     ---       #2704
      ---         BLOCKEND  ---      ---       LVL=0
      00000007H   SYMBOL    DATA     BYTE      number
      00000007H   SYMBOL    DATA     BYTE      priority
      00000005H   SYMBOL    DATA     BYTE      number
      00000006H   SYMBOL    DATA     ---       stateReg

      ---         MODULE    ---      ---       ?C_STARTUP
      00000000H   PUBLIC    NUMBER   ---       ?C?XPAGE1RST
      00000093H   PUBLIC    DATA     BYTE      ?C?XPAGE1SFR
      01002600H   PUBLIC    CODE     NEAR LAB  ?C_STARTUP
      01005BC8H   PUBLIC    CODE     NEAR LAB  STARTUP1
      01002604H   PUBLIC    CODE     NEAR LAB  _dma_wait

      ---         MODULE    ---      ---       ISR_WATCHDOG
      010078F5H   PUBLIC    CODE     ---       ISR_WATCHDOG_Disable
      010078EEH   PUBLIC    CODE     ---       ISR_WATCHDOG_Enable
      010078A6H   PUBLIC    CODE     ---       _ISR_WATCHDOG_SetPriority
      010077F5H   PUBLIC    CODE     ---       _ISR_WATCHDOG_SetVector
      01007980H   PUBLIC    CODE     ---       ISR_WATCHDOG_Interrupt
      010074C5H   PUBLIC    CODE     ---       _ISR_WATCHDOG_StartEx
      000000CAH   SFRSYM    DATA     BYTE      SFRPRT5SEL
      000000DAH   SFRSYM    DATA     BYTE      SFRPRT6SEL
      000000D0H.6 SFRSYM    DATA     BIT       AC
      000000A8H.7 SFRSYM    DATA     BIT       EA
      000000A8H   SFRSYM    DATA     BYTE      IE
      00000085H   SFRSYM    DATA     BYTE      DPH1
      00000084H   SFRSYM    DATA     BYTE      DPL1
      000000D0H.7 SFRSYM    DATA     BIT       CY
      000000A0H   SFRSYM    DATA     BYTE      P2AX
      00000095H   SFRSYM    DATA     BYTE      DPX1
      00000081H   SFRSYM    DATA     BYTE      SP
      000000D0H.2 SFRSYM    DATA     BIT       OV
      00000080H   SFRSYM    DATA     BYTE      SFRPRT0DR
      00000090H   SFRSYM    DATA     BYTE      SFRPRT1DR
      000000F2H   SFRSYM    DATA     BYTE      SFRPRT12SEL
      00000098H   SFRSYM    DATA     BYTE      SFRPRT2DR
      000000B0H   SFRSYM    DATA     BYTE      SFRPRT3DR
      000000C0H   SFRSYM    DATA     BYTE      SFRPRT4DR
      000000FAH   SFRSYM    DATA     BYTE      SFRPRT15SEL
      000000C8H   SFRSYM    DATA     BYTE      SFRPRT5DR
      000000D8H   SFRSYM    DATA     BYTE      SFRPRT6DR
      00000089H   SFRSYM    DATA     BYTE      SFRPRT0PS
      00000091H   SFRSYM    DATA     BYTE      SFRPRT1PS
      00000099H   SFRSYM    DATA     BYTE      SFRPRT2PS
      000000B1H   SFRSYM    DATA     BYTE      SFRPRT3PS
      000000C1H   SFRSYM    DATA     BYTE      SFRPRT4PS
      000000C9H   SFRSYM    DATA     BYTE      SFRPRT5PS
      000000D9H   SFRSYM    DATA     BYTE      SFRPRT6PS
      000000EAH   SFRSYM    DATA     BYTE      MXAX
LX51 LINKER/LOCATER V4.64.0.0                                                         09/27/2016  11:48:46  PAGE 78


      000000F0H   SFRSYM    DATA     BYTE      B
      000000E0H   SFRSYM    DATA     BYTE      ACC
      000000D0H   SFRSYM    DATA     BIT       P
      000000D0H.3 SFRSYM    DATA     BIT       RS0
      000000D0H.4 SFRSYM    DATA     BIT       RS1
      00000083H   SFRSYM    DATA     BYTE      DPH
      000000E8H   SFRSYM    DATA     BYTE      SFRPRT12DR
      00000082H   SFRSYM    DATA     BYTE      DPL
      000000F8H   SFRSYM    DATA     BYTE      SFRPRT15DR
      00000086H   SFRSYM    DATA     BYTE      DPS
      000000E9H   SFRSYM    DATA     BYTE      SFRPRT12PS
      00000093H   SFRSYM    DATA     BYTE      DPX
      000000F9H   SFRSYM    DATA     BYTE      SFRPRT15PS
      000000D0H.5 SFRSYM    DATA     BIT       F0
      000000D0H.1 SFRSYM    DATA     BIT       F1
      0000008AH   SFRSYM    DATA     BYTE      SFRPRT0SEL
      000000D0H   SFRSYM    DATA     BYTE      PSW
      000000A2H   SFRSYM    DATA     BYTE      SFRPRT1SEL
      0000009AH   SFRSYM    DATA     BYTE      SFRPRT2SEL
      000000B2H   SFRSYM    DATA     BYTE      SFRPRT3SEL
      000000C2H   SFRSYM    DATA     BYTE      SFRPRT4SEL

      010074C5H   BLOCK     CODE     ---       LVL=0
      02000005H   SYMBOL    XDATA    ---       address
      010074C5H   LINE      CODE     ---       #94
      010074CDH   LINE      CODE     ---       #95
      010074CDH   LINE      CODE     ---       #97
      010074D0H   LINE      CODE     ---       #100
      010074DBH   LINE      CODE     ---       #103
      010074E0H   LINE      CODE     ---       #106
      010074E3H   LINE      CODE     ---       #107
      ---         BLOCKEND  ---      ---       LVL=0

      01007980H   BLOCK     CODE     ---       LVL=0
      01007980H   LINE      CODE     ---       #151
      01007980H   LINE      CODE     ---       #168
      ---         BLOCKEND  ---      ---       LVL=0

      010077F5H   BLOCK     CODE     ---       LVL=0
      00000006H   SYMBOL    DATA     ---       address
      010077F5H   LINE      CODE     ---       #198
      010077F5H   LINE      CODE     ---       #199
      010077F5H   LINE      CODE     ---       #200
      01007802H   LINE      CODE     ---       #201
      ---         BLOCKEND  ---      ---       LVL=0

      010078A6H   BLOCK     CODE     ---       LVL=0
      00000007H   SYMBOL    DATA     BYTE      priority
      010078A6H   LINE      CODE     ---       #248
      010078A6H   LINE      CODE     ---       #249
      010078A6H   LINE      CODE     ---       #250
      010078AFH   LINE      CODE     ---       #251
      ---         BLOCKEND  ---      ---       LVL=0
      00000007H   SYMBOL    DATA     BYTE      priority

      010078EEH   BLOCK     CODE     ---       LVL=0
      010078EEH   LINE      CODE     ---       #297
      010078EEH   LINE      CODE     ---       #298
      010078EEH   LINE      CODE     ---       #300
      010078F4H   LINE      CODE     ---       #301
      ---         BLOCKEND  ---      ---       LVL=0

      010078F5H   BLOCK     CODE     ---       LVL=0
      010078F5H   LINE      CODE     ---       #339
      010078F5H   LINE      CODE     ---       #340
LX51 LINKER/LOCATER V4.64.0.0                                                         09/27/2016  11:48:46  PAGE 79


      010078F5H   LINE      CODE     ---       #342
      010078FBH   LINE      CODE     ---       #343
      ---         BLOCKEND  ---      ---       LVL=0

      ---         MODULE    ---      ---       WATCHDOG_COUNTER
      0200110BH   PUBLIC    XDATA    BYTE      WATCHDOG_COUNTER_initVar
      01007803H   PUBLIC    CODE     ---       _WATCHDOG_COUNTER_WritePeriod
      01007520H   PUBLIC    CODE     ---       _WATCHDOG_COUNTER_WriteCounter
      0100793AH   PUBLIC    CODE     ---       _WATCHDOG_COUNTER_SetInterruptMode
      010076DFH   PUBLIC    CODE     ---       WATCHDOG_COUNTER_Start
      010075FFH   PUBLIC    CODE     ---       WATCHDOG_COUNTER_Enable
      010070C7H   PUBLIC    CODE     ---       WATCHDOG_COUNTER_Init
      000000CAH   SFRSYM    DATA     BYTE      SFRPRT5SEL
      000000DAH   SFRSYM    DATA     BYTE      SFRPRT6SEL
      000000D0H.6 SFRSYM    DATA     BIT       AC
      000000A8H.7 SFRSYM    DATA     BIT       EA
      000000A8H   SFRSYM    DATA     BYTE      IE
      00000085H   SFRSYM    DATA     BYTE      DPH1
      00000084H   SFRSYM    DATA     BYTE      DPL1
      000000D0H.7 SFRSYM    DATA     BIT       CY
      000000A0H   SFRSYM    DATA     BYTE      P2AX
      00000095H   SFRSYM    DATA     BYTE      DPX1
      00000081H   SFRSYM    DATA     BYTE      SP
      000000D0H.2 SFRSYM    DATA     BIT       OV
      00000080H   SFRSYM    DATA     BYTE      SFRPRT0DR
      00000090H   SFRSYM    DATA     BYTE      SFRPRT1DR
      000000F2H   SFRSYM    DATA     BYTE      SFRPRT12SEL
      00000098H   SFRSYM    DATA     BYTE      SFRPRT2DR
      000000B0H   SFRSYM    DATA     BYTE      SFRPRT3DR
      000000C0H   SFRSYM    DATA     BYTE      SFRPRT4DR
      000000FAH   SFRSYM    DATA     BYTE      SFRPRT15SEL
      000000C8H   SFRSYM    DATA     BYTE      SFRPRT5DR
      000000D8H   SFRSYM    DATA     BYTE      SFRPRT6DR
      00000089H   SFRSYM    DATA     BYTE      SFRPRT0PS
      00000091H   SFRSYM    DATA     BYTE      SFRPRT1PS
      00000099H   SFRSYM    DATA     BYTE      SFRPRT2PS
      000000B1H   SFRSYM    DATA     BYTE      SFRPRT3PS
      000000C1H   SFRSYM    DATA     BYTE      SFRPRT4PS
      000000C9H   SFRSYM    DATA     BYTE      SFRPRT5PS
      000000D9H   SFRSYM    DATA     BYTE      SFRPRT6PS
      000000EAH   SFRSYM    DATA     BYTE      MXAX
      000000F0H   SFRSYM    DATA     BYTE      B
      000000E0H   SFRSYM    DATA     BYTE      ACC
      000000D0H   SFRSYM    DATA     BIT       P
      000000D0H.3 SFRSYM    DATA     BIT       RS0
      000000D0H.4 SFRSYM    DATA     BIT       RS1
      00000083H   SFRSYM    DATA     BYTE      DPH
      000000E8H   SFRSYM    DATA     BYTE      SFRPRT12DR
      00000082H   SFRSYM    DATA     BYTE      DPL
      000000F8H   SFRSYM    DATA     BYTE      SFRPRT15DR
      00000086H   SFRSYM    DATA     BYTE      DPS
      000000E9H   SFRSYM    DATA     BYTE      SFRPRT12PS
      00000093H   SFRSYM    DATA     BYTE      DPX
      000000F9H   SFRSYM    DATA     BYTE      SFRPRT15PS
      000000D0H.5 SFRSYM    DATA     BIT       F0
      000000D0H.1 SFRSYM    DATA     BIT       F1
      0000008AH   SFRSYM    DATA     BYTE      SFRPRT0SEL
      000000D0H   SFRSYM    DATA     BYTE      PSW
      000000A2H   SFRSYM    DATA     BYTE      SFRPRT1SEL
      0000009AH   SFRSYM    DATA     BYTE      SFRPRT2SEL
      000000B2H   SFRSYM    DATA     BYTE      SFRPRT3SEL
      000000C2H   SFRSYM    DATA     BYTE      SFRPRT4SEL

      010070C7H   BLOCK     CODE     ---       LVL=0
      010070C7H   LINE      CODE     ---       #37
LX51 LINKER/LOCATER V4.64.0.0                                                         09/27/2016  11:48:46  PAGE 80


      010070C7H   LINE      CODE     ---       #38
      010070C7H   LINE      CODE     ---       #50
      010070CEH   LINE      CODE     ---       #57
      010070D5H   LINE      CODE     ---       #66
      010070DCH   LINE      CODE     ---       #69
      010070E3H   LINE      CODE     ---       #70
      010070E7H   LINE      CODE     ---       #73
      010070EBH   LINE      CODE     ---       #74
      010070EFH   LINE      CODE     ---       #100
      010070F4H   LINE      CODE     ---       #102
      010070F9H   LINE      CODE     ---       #104
      010070FEH   LINE      CODE     ---       #123
      ---         BLOCKEND  ---      ---       LVL=0

      010075FFH   BLOCK     CODE     ---       LVL=0
      010075FFH   LINE      CODE     ---       #143
      010075FFH   LINE      CODE     ---       #144
      010075FFH   LINE      CODE     ---       #147
      01007606H   LINE      CODE     ---       #148
      0100760DH   LINE      CODE     ---       #155
      01007614H   LINE      CODE     ---       #158
      ---         BLOCKEND  ---      ---       LVL=0

      010076DFH   BLOCK     CODE     ---       LVL=0
      010076DFH   LINE      CODE     ---       #178
      010076DFH   LINE      CODE     ---       #179
      010076DFH   LINE      CODE     ---       #180
      010076E5H   LINE      CODE     ---       #181
      010076E5H   LINE      CODE     ---       #182
      010076E8H   LINE      CODE     ---       #184
      010076EEH   LINE      CODE     ---       #185
      010076EEH   LINE      CODE     ---       #188
      010076F1H   LINE      CODE     ---       #189
      ---         BLOCKEND  ---      ---       LVL=0

      0100793AH   BLOCK     CODE     ---       LVL=0
      00000007H   SYMBOL    DATA     BYTE      interruptsMask
      0100793AH   LINE      CODE     ---       #237
      0100793AH   LINE      CODE     ---       #238
      0100793AH   LINE      CODE     ---       #239
      0100793FH   LINE      CODE     ---       #240
      ---         BLOCKEND  ---      ---       LVL=0
      00000007H   SYMBOL    DATA     BYTE      control

      01007520H   BLOCK     CODE     ---       LVL=0
      00000007H   SYMBOL    DATA     BYTE      counter
      01007520H   LINE      CODE     ---       #326
      01007520H   LINE      CODE     ---       #328
      01007520H   LINE      CODE     ---       #333
      01007527H   LINE      CODE     ---       #334
      01007534H   LINE      CODE     ---       #335
      0100753BH   LINE      CODE     ---       #339
      ---         BLOCKEND  ---      ---       LVL=0

      01007803H   BLOCK     CODE     ---       LVL=0
      00000007H   SYMBOL    DATA     BYTE      period
      01007803H   LINE      CODE     ---       #415
      01007803H   LINE      CODE     ---       #416
      01007803H   LINE      CODE     ---       #418
      01007810H   LINE      CODE     ---       #422
      ---         BLOCKEND  ---      ---       LVL=0

      ---         MODULE    ---      ---       WATCHDOG_ENABLER
      01007940H   PUBLIC    CODE     ---       _WATCHDOG_ENABLER_Write

LX51 LINKER/LOCATER V4.64.0.0                                                         09/27/2016  11:48:46  PAGE 81


      01007940H   BLOCK     CODE     ---       LVL=0
      00000007H   SYMBOL    DATA     BYTE      control
      01007940H   LINE      CODE     ---       #37
      01007940H   LINE      CODE     ---       #38
      01007940H   LINE      CODE     ---       #39
      01007945H   LINE      CODE     ---       #40
      ---         BLOCKEND  ---      ---       LVL=0

      ---         MODULE    ---      ---       WATCHDOG_REFRESH
      01007946H   PUBLIC    CODE     ---       _WATCHDOG_REFRESH_Write

      01007946H   BLOCK     CODE     ---       LVL=0
      00000007H   SYMBOL    DATA     BYTE      control
      01007946H   LINE      CODE     ---       #37
      01007946H   LINE      CODE     ---       #38
      01007946H   LINE      CODE     ---       #39
      0100794BH   LINE      CODE     ---       #40
      ---         BLOCKEND  ---      ---       LVL=0

      ---         MODULE    ---      ---       SPI_IMU
      02001108H   PUBLIC    XDATA    BYTE      SPI_IMU_initVar
      02001107H   PUBLIC    XDATA    BYTE      SPI_IMU_swStatusTx
      02001106H   PUBLIC    XDATA    BYTE      SPI_IMU_swStatusRx
      0100778FH   PUBLIC    CODE     ---       SPI_IMU_ReadStatus
      01007486H   PUBLIC    CODE     ---       SPI_IMU_ClearFIFO
      0100773DH   PUBLIC    CODE     ---       SPI_IMU_ClearTxBuffer
      01007780H   PUBLIC    CODE     ---       SPI_IMU_ClearRxBuffer
      01007958H   PUBLIC    CODE     ---       SPI_IMU_ReadRxData
      01007839H   PUBLIC    CODE     ---       _SPI_IMU_WriteTxData
      01007952H   PUBLIC    CODE     ---       SPI_IMU_ReadRxStatus
      0100794CH   PUBLIC    CODE     ---       SPI_IMU_ReadTxStatus
      01007982H   PUBLIC    CODE     ---       SPI_IMU_EnableRxInt
      01007981H   PUBLIC    CODE     ---       SPI_IMU_EnableTxInt
      010076F2H   PUBLIC    CODE     ---       SPI_IMU_Start
      010073FDH   PUBLIC    CODE     ---       SPI_IMU_Enable
      01007589H   PUBLIC    CODE     ---       SPI_IMU_Init
      000000CAH   SFRSYM    DATA     BYTE      SFRPRT5SEL
      000000DAH   SFRSYM    DATA     BYTE      SFRPRT6SEL
      000000D0H.6 SFRSYM    DATA     BIT       AC
      000000A8H.7 SFRSYM    DATA     BIT       EA
      000000A8H   SFRSYM    DATA     BYTE      IE
      00000085H   SFRSYM    DATA     BYTE      DPH1
      00000084H   SFRSYM    DATA     BYTE      DPL1
      000000D0H.7 SFRSYM    DATA     BIT       CY
      000000A0H   SFRSYM    DATA     BYTE      P2AX
      00000095H   SFRSYM    DATA     BYTE      DPX1
      00000081H   SFRSYM    DATA     BYTE      SP
      000000D0H.2 SFRSYM    DATA     BIT       OV
      00000080H   SFRSYM    DATA     BYTE      SFRPRT0DR
      00000090H   SFRSYM    DATA     BYTE      SFRPRT1DR
      000000F2H   SFRSYM    DATA     BYTE      SFRPRT12SEL
      00000098H   SFRSYM    DATA     BYTE      SFRPRT2DR
      000000B0H   SFRSYM    DATA     BYTE      SFRPRT3DR
      000000C0H   SFRSYM    DATA     BYTE      SFRPRT4DR
      000000FAH   SFRSYM    DATA     BYTE      SFRPRT15SEL
      000000C8H   SFRSYM    DATA     BYTE      SFRPRT5DR
      000000D8H   SFRSYM    DATA     BYTE      SFRPRT6DR
      00000089H   SFRSYM    DATA     BYTE      SFRPRT0PS
      00000091H   SFRSYM    DATA     BYTE      SFRPRT1PS
      00000099H   SFRSYM    DATA     BYTE      SFRPRT2PS
      000000B1H   SFRSYM    DATA     BYTE      SFRPRT3PS
      000000C1H   SFRSYM    DATA     BYTE      SFRPRT4PS
      000000C9H   SFRSYM    DATA     BYTE      SFRPRT5PS
      000000D9H   SFRSYM    DATA     BYTE      SFRPRT6PS
      000000EAH   SFRSYM    DATA     BYTE      MXAX
LX51 LINKER/LOCATER V4.64.0.0                                                         09/27/2016  11:48:46  PAGE 82


      000000F0H   SFRSYM    DATA     BYTE      B
      000000E0H   SFRSYM    DATA     BYTE      ACC
      000000D0H   SFRSYM    DATA     BIT       P
      000000D0H.3 SFRSYM    DATA     BIT       RS0
      000000D0H.4 SFRSYM    DATA     BIT       RS1
      00000083H   SFRSYM    DATA     BYTE      DPH
      000000E8H   SFRSYM    DATA     BYTE      SFRPRT12DR
      00000082H   SFRSYM    DATA     BYTE      DPL
      000000F8H   SFRSYM    DATA     BYTE      SFRPRT15DR
      00000086H   SFRSYM    DATA     BYTE      DPS
      000000E9H   SFRSYM    DATA     BYTE      SFRPRT12PS
      00000093H   SFRSYM    DATA     BYTE      DPX
      000000F9H   SFRSYM    DATA     BYTE      SFRPRT15PS
      000000D0H.5 SFRSYM    DATA     BIT       F0
      000000D0H.1 SFRSYM    DATA     BIT       F1
      0000008AH   SFRSYM    DATA     BYTE      SFRPRT0SEL
      000000D0H   SFRSYM    DATA     BYTE      PSW
      000000A2H   SFRSYM    DATA     BYTE      SFRPRT1SEL
      0000009AH   SFRSYM    DATA     BYTE      SFRPRT2SEL
      000000B2H   SFRSYM    DATA     BYTE      SFRPRT3SEL
      000000C2H   SFRSYM    DATA     BYTE      SFRPRT4SEL

      01007589H   BLOCK     CODE     ---       LVL=0
      01007589H   LINE      CODE     ---       #63
      01007589H   LINE      CODE     ---       #64
      01007589H   LINE      CODE     ---       #66
      0100758FH   LINE      CODE     ---       #83
      01007592H   LINE      CODE     ---       #97
      01007595H   LINE      CODE     ---       #98
      01007598H   LINE      CODE     ---       #101
      0100759DH   LINE      CODE     ---       #102
      010075A1H   LINE      CODE     ---       #103
      ---         BLOCKEND  ---      ---       LVL=0

      010073FDH   BLOCK     CODE     ---       LVL=0
      010073FDH   BLOCK     CODE     NEAR LAB  LVL=1
      00000007H   SYMBOL    DATA     BYTE      enableInterrupts
      ---         BLOCKEND  ---      ---       LVL=1
      010073FDH   LINE      CODE     ---       #120
      010073FDH   LINE      CODE     ---       #121
      010073FDH   LINE      CODE     ---       #124
      01007400H   LINE      CODE     ---       #125
      01007407H   LINE      CODE     ---       #126
      0100740EH   LINE      CODE     ---       #127
      01007415H   LINE      CODE     ---       #128
      01007418H   LINE      CODE     ---       #131
      0100741BH   LINE      CODE     ---       #134
      0100741EH   LINE      CODE     ---       #135
      01007421H   LINE      CODE     ---       #136
      ---         BLOCKEND  ---      ---       LVL=0

      010076F2H   BLOCK     CODE     ---       LVL=0
      010076F2H   LINE      CODE     ---       #163
      010076F2H   LINE      CODE     ---       #164
      010076F2H   LINE      CODE     ---       #165
      010076F8H   LINE      CODE     ---       #166
      010076F8H   LINE      CODE     ---       #167
      010076FBH   LINE      CODE     ---       #168
      01007701H   LINE      CODE     ---       #169
      01007701H   LINE      CODE     ---       #171
      01007704H   LINE      CODE     ---       #172
      ---         BLOCKEND  ---      ---       LVL=0
      00000007H   SYMBOL    DATA     BYTE      enableInterrupts

      01007981H   BLOCK     CODE     ---       LVL=0
LX51 LINKER/LOCATER V4.64.0.0                                                         09/27/2016  11:48:46  PAGE 83


      01007981H   LINE      CODE     ---       #227
      01007981H   LINE      CODE     ---       #228
      01007981H   LINE      CODE     ---       #232
      ---         BLOCKEND  ---      ---       LVL=0

      01007982H   BLOCK     CODE     ---       LVL=0
      01007982H   LINE      CODE     ---       #252
      01007982H   LINE      CODE     ---       #253
      01007982H   LINE      CODE     ---       #257
      ---         BLOCKEND  ---      ---       LVL=0
      00000007H   SYMBOL    DATA     BYTE      intSrc
      00000007H   SYMBOL    DATA     BYTE      intSrc

      0100794CH   BLOCK     CODE     ---       LVL=0
      0100794CH   BLOCK     CODE     NEAR LAB  LVL=1
      00000007H   SYMBOL    DATA     BYTE      tmpStatus
      ---         BLOCKEND  ---      ---       LVL=1
      0100794CH   LINE      CODE     ---       #386
      0100794CH   LINE      CODE     ---       #387
      0100794CH   LINE      CODE     ---       #401
      01007951H   LINE      CODE     ---       #405
      01007951H   LINE      CODE     ---       #406
      ---         BLOCKEND  ---      ---       LVL=0

      01007952H   BLOCK     CODE     ---       LVL=0
      01007952H   BLOCK     CODE     NEAR LAB  LVL=1
      00000007H   SYMBOL    DATA     BYTE      tmpStatus
      ---         BLOCKEND  ---      ---       LVL=1
      01007952H   LINE      CODE     ---       #437
      01007952H   LINE      CODE     ---       #438
      01007952H   LINE      CODE     ---       #452
      01007957H   LINE      CODE     ---       #456
      01007957H   LINE      CODE     ---       #457
      ---         BLOCKEND  ---      ---       LVL=0

      01007839H   BLOCK     CODE     ---       LVL=0
      00000007H   SYMBOL    DATA     BYTE      txData
      01007839H   LINE      CODE     ---       #494
      01007839H   LINE      CODE     ---       #495
      01007839H   LINE      CODE     ---       #557
      01007840H   LINE      CODE     ---       #558
      01007840H   LINE      CODE     ---       #559
      01007840H   LINE      CODE     ---       #562
      01007845H   LINE      CODE     ---       #565
      ---         BLOCKEND  ---      ---       LVL=0

      01007958H   BLOCK     CODE     ---       LVL=0
      01007958H   BLOCK     CODE     NEAR LAB  LVL=1
      00000007H   SYMBOL    DATA     BYTE      rxData
      ---         BLOCKEND  ---      ---       LVL=1
      01007958H   LINE      CODE     ---       #602
      01007958H   LINE      CODE     ---       #603
      01007958H   LINE      CODE     ---       #633
      0100795DH   LINE      CODE     ---       #637
      0100795DH   LINE      CODE     ---       #638
      ---         BLOCKEND  ---      ---       LVL=0
      00000007H   SYMBOL    DATA     BYTE      size
      00000007H   SYMBOL    DATA     BYTE      size

      01007780H   BLOCK     CODE     ---       LVL=0
      01007780H   LINE      CODE     ---       #806
      01007780H   LINE      CODE     ---       #807
      01007780H   LINE      CODE     ---       #809
      01007787H   LINE      CODE     ---       #810
      01007787H   LINE      CODE     ---       #811
LX51 LINKER/LOCATER V4.64.0.0                                                         09/27/2016  11:48:46  PAGE 84


      0100778CH   LINE      CODE     ---       #812
      0100778EH   LINE      CODE     ---       #824
      ---         BLOCKEND  ---      ---       LVL=0

      0100773DH   BLOCK     CODE     ---       LVL=0
      0100773DH   BLOCK     CODE     NEAR LAB  LVL=1
      00000007H   SYMBOL    DATA     BYTE      enableInterrupts
      ---         BLOCKEND  ---      ---       LVL=1
      0100773DH   LINE      CODE     ---       #861
      0100773DH   LINE      CODE     ---       #862
      0100773DH   LINE      CODE     ---       #865
      01007740H   LINE      CODE     ---       #867
      01007747H   LINE      CODE     ---       #868
      0100774BH   LINE      CODE     ---       #875
      0100774EH   LINE      CODE     ---       #890
      ---         BLOCKEND  ---      ---       LVL=0
      00000005H   SYMBOL    DATA     BYTE      byteCount
      00000006H   SYMBOL    DATA     BYTE      bufIndex

      01007486H   BLOCK     CODE     ---       LVL=0
      01007486H   BLOCK     CODE     NEAR LAB  LVL=1
      00000007H   SYMBOL    DATA     BYTE      enableInterrupts
      ---         BLOCKEND  ---      ---       LVL=1
      01007486H   LINE      CODE     ---       #995
      01007486H   LINE      CODE     ---       #996
      01007486H   LINE      CODE     ---       #1000
      0100748DH   LINE      CODE     ---       #1001
      0100748DH   LINE      CODE     ---       #1002
      01007492H   LINE      CODE     ---       #1003
      01007494H   LINE      CODE     ---       #1005
      01007497H   LINE      CODE     ---       #1007
      0100749EH   LINE      CODE     ---       #1008
      010074A2H   LINE      CODE     ---       #1015
      010074A5H   LINE      CODE     ---       #1016
      ---         BLOCKEND  ---      ---       LVL=0
      00000007H   SYMBOL    DATA     BYTE      intSrc

      0100778FH   BLOCK     CODE     ---       LVL=0
      0100778FH   BLOCK     CODE     NEAR LAB  LVL=1
      00000007H   SYMBOL    DATA     BYTE      tmpStatus
      ---         BLOCKEND  ---      ---       LVL=1
      0100778FH   LINE      CODE     ---       #1125
      0100778FH   LINE      CODE     ---       #1126
      0100778FH   LINE      CODE     ---       #1144
      01007794H   LINE      CODE     ---       #1145
      0100779AH   LINE      CODE     ---       #1146
      0100779DH   LINE      CODE     ---       #1150
      0100779DH   LINE      CODE     ---       #1151
      ---         BLOCKEND  ---      ---       LVL=0

      ---         MODULE    ---      ---       ISR_IMU
      01007903H   PUBLIC    CODE     ---       isr_imu_Disable
      010078FCH   PUBLIC    CODE     ---       isr_imu_Enable
      010078B0H   PUBLIC    CODE     ---       _isr_imu_SetPriority
      01007811H   PUBLIC    CODE     ---       _isr_imu_SetVector
      010040CEH   PUBLIC    CODE     ---       isr_imu_Interrupt
      0100796EH   PUBLIC    CODE     ---       isr_imu_Stop
      01007705H   PUBLIC    CODE     ---       isr_imu_Start
      000000CAH   SFRSYM    DATA     BYTE      SFRPRT5SEL
      000000DAH   SFRSYM    DATA     BYTE      SFRPRT6SEL
      000000D0H.6 SFRSYM    DATA     BIT       AC
      000000A8H.7 SFRSYM    DATA     BIT       EA
      000000A8H   SFRSYM    DATA     BYTE      IE
      00000085H   SFRSYM    DATA     BYTE      DPH1
      00000084H   SFRSYM    DATA     BYTE      DPL1
LX51 LINKER/LOCATER V4.64.0.0                                                         09/27/2016  11:48:46  PAGE 85


      000000D0H.7 SFRSYM    DATA     BIT       CY
      000000A0H   SFRSYM    DATA     BYTE      P2AX
      00000095H   SFRSYM    DATA     BYTE      DPX1
      00000081H   SFRSYM    DATA     BYTE      SP
      000000D0H.2 SFRSYM    DATA     BIT       OV
      00000080H   SFRSYM    DATA     BYTE      SFRPRT0DR
      00000090H   SFRSYM    DATA     BYTE      SFRPRT1DR
      000000F2H   SFRSYM    DATA     BYTE      SFRPRT12SEL
      00000098H   SFRSYM    DATA     BYTE      SFRPRT2DR
      000000B0H   SFRSYM    DATA     BYTE      SFRPRT3DR
      000000C0H   SFRSYM    DATA     BYTE      SFRPRT4DR
      000000FAH   SFRSYM    DATA     BYTE      SFRPRT15SEL
      000000C8H   SFRSYM    DATA     BYTE      SFRPRT5DR
      000000D8H   SFRSYM    DATA     BYTE      SFRPRT6DR
      00000089H   SFRSYM    DATA     BYTE      SFRPRT0PS
      00000091H   SFRSYM    DATA     BYTE      SFRPRT1PS
      00000099H   SFRSYM    DATA     BYTE      SFRPRT2PS
      000000B1H   SFRSYM    DATA     BYTE      SFRPRT3PS
      000000C1H   SFRSYM    DATA     BYTE      SFRPRT4PS
      000000C9H   SFRSYM    DATA     BYTE      SFRPRT5PS
      000000D9H   SFRSYM    DATA     BYTE      SFRPRT6PS
      000000EAH   SFRSYM    DATA     BYTE      MXAX
      000000F0H   SFRSYM    DATA     BYTE      B
      000000E0H   SFRSYM    DATA     BYTE      ACC
      000000D0H   SFRSYM    DATA     BIT       P
      000000D0H.3 SFRSYM    DATA     BIT       RS0
      000000D0H.4 SFRSYM    DATA     BIT       RS1
      00000083H   SFRSYM    DATA     BYTE      DPH
      000000E8H   SFRSYM    DATA     BYTE      SFRPRT12DR
      00000082H   SFRSYM    DATA     BYTE      DPL
      000000F8H   SFRSYM    DATA     BYTE      SFRPRT15DR
      00000086H   SFRSYM    DATA     BYTE      DPS
      000000E9H   SFRSYM    DATA     BYTE      SFRPRT12PS
      00000093H   SFRSYM    DATA     BYTE      DPX
      000000F9H   SFRSYM    DATA     BYTE      SFRPRT15PS
      000000D0H.5 SFRSYM    DATA     BIT       F0
      000000D0H.1 SFRSYM    DATA     BIT       F1
      0000008AH   SFRSYM    DATA     BYTE      SFRPRT0SEL
      000000D0H   SFRSYM    DATA     BYTE      PSW
      000000A2H   SFRSYM    DATA     BYTE      SFRPRT1SEL
      0000009AH   SFRSYM    DATA     BYTE      SFRPRT2SEL
      000000B2H   SFRSYM    DATA     BYTE      SFRPRT3SEL
      000000C2H   SFRSYM    DATA     BYTE      SFRPRT4SEL

      01007705H   BLOCK     CODE     ---       LVL=0
      01007705H   LINE      CODE     ---       #68
      01007705H   LINE      CODE     ---       #69
      01007705H   LINE      CODE     ---       #71
      01007708H   LINE      CODE     ---       #74
      0100770FH   LINE      CODE     ---       #77
      01007714H   LINE      CODE     ---       #80
      01007717H   LINE      CODE     ---       #81
      ---         BLOCKEND  ---      ---       LVL=0

      0100796EH   BLOCK     CODE     ---       LVL=0
      0100796EH   LINE      CODE     ---       #141
      0100796EH   LINE      CODE     ---       #142
      0100796EH   LINE      CODE     ---       #144
      01007971H   LINE      CODE     ---       #145
      ---         BLOCKEND  ---      ---       LVL=0

      010040CEH   BLOCK     CODE     ---       LVL=0
      010040F9H   BLOCK     CODE     NEAR LAB  LVL=1
      02000510H   SYMBOL    XDATA    BYTE      k_imu
      02000511H   SYMBOL    XDATA    BYTE      c
LX51 LINKER/LOCATER V4.64.0.0                                                         09/27/2016  11:48:46  PAGE 86


      02000512H   SYMBOL    XDATA    BYTE      k
      02000513H   SYMBOL    XDATA    BYTE      gl_c
      02000514H   SYMBOL    XDATA    WORD      tmp
      02000516H   SYMBOL    XDATA    ---       packet_data
      02000674H   SYMBOL    XDATA    ---       single_packet
      ---         BLOCKEND  ---      ---       LVL=1
      010040CEH   LINE      CODE     ---       #168
      010040F9H   LINE      CODE     ---       #177
      010040FFH   LINE      CODE     ---       #178
      01004102H   LINE      CODE     ---       #179
      01004105H   LINE      CODE     ---       #180
      0100410AH   LINE      CODE     ---       #186
      0100411FH   LINE      CODE     ---       #187
      01004130H   LINE      CODE     ---       #188
      01004144H   LINE      CODE     ---       #190
      0100416BH   LINE      CODE     ---       #191
      01004196H   LINE      CODE     ---       #192
      010041BDH   LINE      CODE     ---       #193
      010041E8H   LINE      CODE     ---       #194
      0100420FH   LINE      CODE     ---       #195
      0100423AH   LINE      CODE     ---       #197
      01004261H   LINE      CODE     ---       #198
      0100428CH   LINE      CODE     ---       #199
      010042B3H   LINE      CODE     ---       #200
      010042DEH   LINE      CODE     ---       #201
      01004305H   LINE      CODE     ---       #202
      01004330H   LINE      CODE     ---       #204
      01004357H   LINE      CODE     ---       #205
      01004382H   LINE      CODE     ---       #206
      010043A9H   LINE      CODE     ---       #207
      010043D4H   LINE      CODE     ---       #208
      010043FBH   LINE      CODE     ---       #209
      01004426H   LINE      CODE     ---       #210
      0100442FH   LINE      CODE     ---       #213
      0100443AH   LINE      CODE     ---       #215
      01004440H   LINE      CODE     ---       #217
      01004456H   LINE      CODE     ---       #218
      01004456H   LINE      CODE     ---       #220
      0100445CH   LINE      CODE     ---       #221
      01004477H   LINE      CODE     ---       #222
      010044A2H   LINE      CODE     ---       #223
      010044C5H   LINE      CODE     ---       #224
      010044EBH   LINE      CODE     ---       #225
      010044F2H   LINE      CODE     ---       #226
      010044F2H   LINE      CODE     ---       #227
      01004511H   LINE      CODE     ---       #228
      0100453CH   LINE      CODE     ---       #229
      0100455FH   LINE      CODE     ---       #230
      01004582H   LINE      CODE     ---       #231
      01004589H   LINE      CODE     ---       #232
      01004589H   LINE      CODE     ---       #233
      010045A8H   LINE      CODE     ---       #234
      010045D3H   LINE      CODE     ---       #235
      010045F6H   LINE      CODE     ---       #236
      01004619H   LINE      CODE     ---       #237
      01004620H   LINE      CODE     ---       #238
      01004620H   LINE      CODE     ---       #239
      01004649H   LINE      CODE     ---       #240
      0100464FH   LINE      CODE     ---       #243
      01004682H   LINE      CODE     ---       #244
      010046A5H   LINE      CODE     ---       #245
      010046ADH   LINE      CODE     ---       #246
      010046C3H   LINE      CODE     ---       #248
      010046D2H   LINE      CODE     ---       #250
      010046DBH   LINE      CODE     ---       #253
LX51 LINKER/LOCATER V4.64.0.0                                                         09/27/2016  11:48:46  PAGE 87


      010046FFH   LINE      CODE     ---       #254
      01004708H   LINE      CODE     ---       #256
      0100470DH   LINE      CODE     ---       #257
      0100470DH   LINE      CODE     ---       #267
      ---         BLOCKEND  ---      ---       LVL=0

      01007811H   BLOCK     CODE     ---       LVL=0
      00000006H   SYMBOL    DATA     ---       address
      01007811H   LINE      CODE     ---       #297
      01007811H   LINE      CODE     ---       #298
      01007811H   LINE      CODE     ---       #299
      0100781EH   LINE      CODE     ---       #300
      ---         BLOCKEND  ---      ---       LVL=0

      010078B0H   BLOCK     CODE     ---       LVL=0
      00000007H   SYMBOL    DATA     BYTE      priority
      010078B0H   LINE      CODE     ---       #347
      010078B0H   LINE      CODE     ---       #348
      010078B0H   LINE      CODE     ---       #349
      010078B9H   LINE      CODE     ---       #350
      ---         BLOCKEND  ---      ---       LVL=0
      00000007H   SYMBOL    DATA     BYTE      priority

      010078FCH   BLOCK     CODE     ---       LVL=0
      010078FCH   LINE      CODE     ---       #396
      010078FCH   LINE      CODE     ---       #397
      010078FCH   LINE      CODE     ---       #399
      01007902H   LINE      CODE     ---       #400
      ---         BLOCKEND  ---      ---       LVL=0

      01007903H   BLOCK     CODE     ---       LVL=0
      01007903H   LINE      CODE     ---       #438
      01007903H   LINE      CODE     ---       #439
      01007903H   LINE      CODE     ---       #441
      01007909H   LINE      CODE     ---       #442
      ---         BLOCKEND  ---      ---       LVL=0

      ---         MODULE    ---      ---       OPTO_PIN
      01007761H   PUBLIC    CODE     ---       _Opto_Pin_Write

      01007761H   BLOCK     CODE     ---       LVL=0
      00000007H   SYMBOL    DATA     BYTE      value
      01007761H   BLOCK     CODE     NEAR LAB  LVL=1
      00000006H   SYMBOL    DATA     BYTE      staticBits
      ---         BLOCKEND  ---      ---       LVL=1
      01007761H   LINE      CODE     ---       #53
      01007761H   LINE      CODE     ---       #54
      01007761H   LINE      CODE     ---       #55
      01007768H   LINE      CODE     ---       #56
      01007770H   LINE      CODE     ---       #57
      ---         BLOCKEND  ---      ---       LVL=0
      00000007H   SYMBOL    DATA     BYTE      mode

      ---         MODULE    ---      ---       CHIP_SELECT_A
      0100795EH   PUBLIC    CODE     ---       _Chip_Select_A_Write

      0100795EH   BLOCK     CODE     ---       LVL=0
      00000007H   SYMBOL    DATA     BYTE      control
      0100795EH   LINE      CODE     ---       #37
      0100795EH   LINE      CODE     ---       #38
      0100795EH   LINE      CODE     ---       #39
      01007963H   LINE      CODE     ---       #40
      ---         BLOCKEND  ---      ---       LVL=0

      ---         MODULE    ---      ---       CHIP_SELECT_B
LX51 LINKER/LOCATER V4.64.0.0                                                         09/27/2016  11:48:46  PAGE 88


      01007964H   PUBLIC    CODE     ---       _Chip_Select_B_Write

      01007964H   BLOCK     CODE     ---       LVL=0
      00000007H   SYMBOL    DATA     BYTE      control
      01007964H   LINE      CODE     ---       #37
      01007964H   LINE      CODE     ---       #38
      01007964H   LINE      CODE     ---       #39
      01007969H   LINE      CODE     ---       #40
      ---         BLOCKEND  ---      ---       LVL=0

      ---         MODULE    ---      ---       CYFITTER_CFG
      01005CE2H   PUBLIC    CODE     ---       cyfitter_cfg
      000000CAH   SFRSYM    DATA     BYTE      SFRPRT5SEL
      000000DAH   SFRSYM    DATA     BYTE      SFRPRT6SEL
      000000D0H.6 SFRSYM    DATA     BIT       AC
      000000A8H.7 SFRSYM    DATA     BIT       EA
      000000A8H   SFRSYM    DATA     BYTE      IE
      00000085H   SFRSYM    DATA     BYTE      DPH1
      00000084H   SFRSYM    DATA     BYTE      DPL1
      000000D0H.7 SFRSYM    DATA     BIT       CY
      000000A0H   SFRSYM    DATA     BYTE      P2AX
      00000095H   SFRSYM    DATA     BYTE      DPX1
      00000081H   SFRSYM    DATA     BYTE      SP
      000000D0H.2 SFRSYM    DATA     BIT       OV
      00000080H   SFRSYM    DATA     BYTE      SFRPRT0DR
      00000090H   SFRSYM    DATA     BYTE      SFRPRT1DR
      000000F2H   SFRSYM    DATA     BYTE      SFRPRT12SEL
      00000098H   SFRSYM    DATA     BYTE      SFRPRT2DR
      000000B0H   SFRSYM    DATA     BYTE      SFRPRT3DR
      000000C0H   SFRSYM    DATA     BYTE      SFRPRT4DR
      000000FAH   SFRSYM    DATA     BYTE      SFRPRT15SEL
      000000C8H   SFRSYM    DATA     BYTE      SFRPRT5DR
      000000D8H   SFRSYM    DATA     BYTE      SFRPRT6DR
      00000089H   SFRSYM    DATA     BYTE      SFRPRT0PS
      00000091H   SFRSYM    DATA     BYTE      SFRPRT1PS
      00000099H   SFRSYM    DATA     BYTE      SFRPRT2PS
      000000B1H   SFRSYM    DATA     BYTE      SFRPRT3PS
      000000C1H   SFRSYM    DATA     BYTE      SFRPRT4PS
      000000C9H   SFRSYM    DATA     BYTE      SFRPRT5PS
      000000D9H   SFRSYM    DATA     BYTE      SFRPRT6PS
      000000EAH   SFRSYM    DATA     BYTE      MXAX
      000000F0H   SFRSYM    DATA     BYTE      B
      000000E0H   SFRSYM    DATA     BYTE      ACC
      000000D0H   SFRSYM    DATA     BIT       P
      000000D0H.3 SFRSYM    DATA     BIT       RS0
      000000D0H.4 SFRSYM    DATA     BIT       RS1
      00000083H   SFRSYM    DATA     BYTE      DPH
      000000E8H   SFRSYM    DATA     BYTE      SFRPRT12DR
      00000082H   SFRSYM    DATA     BYTE      DPL
      000000F8H   SFRSYM    DATA     BYTE      SFRPRT15DR
      00000086H   SFRSYM    DATA     BYTE      DPS
      000000E9H   SFRSYM    DATA     BYTE      SFRPRT12PS
      00000093H   SFRSYM    DATA     BYTE      DPX
      000000F9H   SFRSYM    DATA     BYTE      SFRPRT15PS
      000000D0H.5 SFRSYM    DATA     BIT       F0
      000000D0H.1 SFRSYM    DATA     BIT       F1
      0000008AH   SFRSYM    DATA     BYTE      SFRPRT0SEL
      000000D0H   SFRSYM    DATA     BYTE      PSW
      000000A2H   SFRSYM    DATA     BYTE      SFRPRT1SEL
      0000009AH   SFRSYM    DATA     BYTE      SFRPRT2SEL
      000000B2H   SFRSYM    DATA     BYTE      SFRPRT3SEL
      000000C2H   SFRSYM    DATA     BYTE      SFRPRT4SEL
      010056E5H   SYMBOL    CODE     ---       ClockSetup
      01007975H   SYMBOL    CODE     ---       _CyClockStartupError
      01007503H   SYMBOL    CODE     ---       AnalogSetDefault
LX51 LINKER/LOCATER V4.64.0.0                                                         09/27/2016  11:48:46  PAGE 89


      01006739H   SYMBOL    CODE     ---       cfg_dma_init

      01007975H   BLOCK     CODE     ---       LVL=0
      02000000H   SYMBOL    XDATA    BYTE      errorCode
      01007975H   LINE      CODE     ---       #72
      01007975H   LINE      CODE     ---       #73
      01007975H   LINE      CODE     ---       #75
      01007975H   LINE      CODE     ---       #87
      ---         BLOCKEND  ---      ---       LVL=0

      01006739H   BLOCK     CODE     ---       LVL=0
      01006739H   BLOCK     CODE     NEAR LAB  LVL=1
      01007983H   SYMBOL    CONST    ---       CH1_ADDR_DATA0
      0100798BH   SYMBOL    CONST    ---       CH2_ADDR_DATA0
      01007993H   SYMBOL    CONST    ---       CH5_ADDR_DATA0
      0100799BH   SYMBOL    CONST    ---       CH6_ADDR_DATA0
      010079A3H   SYMBOL    CONST    ---       DMA_TD_START_CMD
      02001102H   SYMBOL    XDATA    DWORD     DMA_ZERO_VAL
      010079A8H   SYMBOL    CONST    ---       CFG_TD_LIST0
      ---         BLOCKEND  ---      ---       LVL=1
      01006739H   LINE      CODE     ---       #309
      01006739H   LINE      CODE     ---       #310
      01006739H   LINE      CODE     ---       #427
      01006744H   LINE      CODE     ---       #428
      0100674AH   LINE      CODE     ---       #429
      01006750H   LINE      CODE     ---       #430
      01006755H   LINE      CODE     ---       #431
      01006761H   LINE      CODE     ---       #432
      01006767H   LINE      CODE     ---       #433
      0100676BH   LINE      CODE     ---       #434
      0100678DH   LINE      CODE     ---       #435
      0100679AH   LINE      CODE     ---       #436
      010067A7H   LINE      CODE     ---       #437
      010067B3H   LINE      CODE     ---       #438
      010067B9H   LINE      CODE     ---       #439
      010067BEH   LINE      CODE     ---       #440
      010067C4H   LINE      CODE     ---       #441
      010067CAH   LINE      CODE     ---       #443
      010067CAH   LINE      CODE     ---       #444
      010067D0H   LINE      CODE     ---       #445
      010067D0H   LINE      CODE     ---       #448
      010067D8H   LINE      CODE     ---       #449
      010067E0H   LINE      CODE     ---       #450
      010067E8H   LINE      CODE     ---       #451
      010067F0H   LINE      CODE     ---       #452
      010067F8H   LINE      CODE     ---       #455
      ---         BLOCKEND  ---      ---       LVL=0

      010056E5H   BLOCK     CODE     ---       LVL=0
      010056E5H   BLOCK     CODE     NEAR LAB  LVL=1
      02000000H   SYMBOL    XDATA    DWORD     timeout
      02000004H   SYMBOL    XDATA    BYTE      pllLock
      ---         BLOCKEND  ---      ---       LVL=1
      010056E5H   LINE      CODE     ---       #473
      010056E5H   LINE      CODE     ---       #474
      010056E5H   LINE      CODE     ---       #480
      010056F2H   LINE      CODE     ---       #481
      010056F8H   LINE      CODE     ---       #482
      01005705H   LINE      CODE     ---       #483
      0100570BH   LINE      CODE     ---       #484
      01005718H   LINE      CODE     ---       #485
      0100571EH   LINE      CODE     ---       #486
      0100572BH   LINE      CODE     ---       #487
      01005731H   LINE      CODE     ---       #488
      0100573EH   LINE      CODE     ---       #489
LX51 LINKER/LOCATER V4.64.0.0                                                         09/27/2016  11:48:46  PAGE 90


      01005744H   LINE      CODE     ---       #492
      0100574AH   LINE      CODE     ---       #495
      01005750H   LINE      CODE     ---       #496
      0100575EH   LINE      CODE     ---       #499
      0100576BH   LINE      CODE     ---       #500
      01005778H   LINE      CODE     ---       #502
      0100577DH   LINE      CODE     ---       #503
      010057A2H   LINE      CODE     ---       #504
      010057A2H   LINE      CODE     ---       #505
      010057B3H   LINE      CODE     ---       #506
      010057BDH   LINE      CODE     ---       #507
      010057E5H   LINE      CODE     ---       #509
      010057F3H   LINE      CODE     ---       #510
      010057F3H   LINE      CODE     ---       #511
      010057F8H   LINE      CODE     ---       #512
      010057F8H   LINE      CODE     ---       #515
      01005805H   LINE      CODE     ---       #516
      0100580BH   LINE      CODE     ---       #517
      01005810H   LINE      CODE     ---       #518
      01005816H   LINE      CODE     ---       #519
      0100581BH   LINE      CODE     ---       #522
      0100581FH   LINE      CODE     ---       #523
      01005825H   LINE      CODE     ---       #525
      0100582CH   LINE      CODE     ---       #526
      ---         BLOCKEND  ---      ---       LVL=0

      01007503H   BLOCK     CODE     ---       LVL=0
      01007503H   BLOCK     CODE     NEAR LAB  LVL=1
      00000007H   SYMBOL    DATA     BYTE      bg_xover_inl_trim
      ---         BLOCKEND  ---      ---       LVL=1
      01007503H   LINE      CODE     ---       #548
      01007503H   LINE      CODE     ---       #549
      01007503H   LINE      CODE     ---       #550
      0100750CH   LINE      CODE     ---       #551
      01007513H   LINE      CODE     ---       #552
      01007519H   LINE      CODE     ---       #553
      0100751FH   LINE      CODE     ---       #554
      ---         BLOCKEND  ---      ---       LVL=0
      00000007H   SYMBOL    DATA     BYTE      enabled
      00000006H   SYMBOL    DATA     BYTE      regValue

      01005CE2H   BLOCK     CODE     ---       LVL=0
      01005CE2H   BLOCK     CODE     NEAR LAB  LVL=1
      01007C48H   SYMBOL    CONST    ---       BS_IOPINS0_8_VAL
      01007C50H   SYMBOL    CONST    ---       BS_IOPINS0_1_VAL
      01007C5AH   SYMBOL    CONST    ---       BS_IOPINS0_2_VAL
      ---         BLOCKEND  ---      ---       LVL=1
      01005CE2H   LINE      CODE     ---       #608
      01005CE2H   LINE      CODE     ---       #609
      01005CE2H   LINE      CODE     ---       #623
      01005CF8H   LINE      CODE     ---       #625
      01005CF8H   LINE      CODE     ---       #626
      01005CFBH   LINE      CODE     ---       #629
      01005D11H   LINE      CODE     ---       #630
      01005D27H   LINE      CODE     ---       #633
      01005D2EH   LINE      CODE     ---       #634
      01005D35H   LINE      CODE     ---       #635
      01005D35H   LINE      CODE     ---       #639
      01005D4FH   LINE      CODE     ---       #640
      01005D69H   LINE      CODE     ---       #641
      01005D7AH   LINE      CODE     ---       #642
      01005D8BH   LINE      CODE     ---       #643
      01005D9CH   LINE      CODE     ---       #644
      01005DA2H   LINE      CODE     ---       #646
      01005DA9H   LINE      CODE     ---       #647
LX51 LINKER/LOCATER V4.64.0.0                                                         09/27/2016  11:48:46  PAGE 91


      01005DB2H   LINE      CODE     ---       #648
      01005DB2H   LINE      CODE     ---       #649
      01005DB8H   LINE      CODE     ---       #650
      01005DB8H   LINE      CODE     ---       #654
      01005DBEH   LINE      CODE     ---       #656
      01005DC1H   LINE      CODE     ---       #659
      01005DC4H   LINE      CODE     ---       #662
      01005DE5H   LINE      CODE     ---       #663
      01005DECH   LINE      CODE     ---       #664
      ---         BLOCKEND  ---      ---       LVL=0

      ---         MODULE    ---      ---       UART_RS485_INT
      010067F9H   PUBLIC    CODE     ---       UART_RS485_RXISR
      000000CAH   SFRSYM    DATA     BYTE      SFRPRT5SEL
      000000DAH   SFRSYM    DATA     BYTE      SFRPRT6SEL
      000000D0H.6 SFRSYM    DATA     BIT       AC
      000000A8H.7 SFRSYM    DATA     BIT       EA
      000000A8H   SFRSYM    DATA     BYTE      IE
      00000085H   SFRSYM    DATA     BYTE      DPH1
      00000084H   SFRSYM    DATA     BYTE      DPL1
      000000D0H.7 SFRSYM    DATA     BIT       CY
      000000A0H   SFRSYM    DATA     BYTE      P2AX
      00000095H   SFRSYM    DATA     BYTE      DPX1
      00000081H   SFRSYM    DATA     BYTE      SP
      000000D0H.2 SFRSYM    DATA     BIT       OV
      00000080H   SFRSYM    DATA     BYTE      SFRPRT0DR
      00000090H   SFRSYM    DATA     BYTE      SFRPRT1DR
      000000F2H   SFRSYM    DATA     BYTE      SFRPRT12SEL
      00000098H   SFRSYM    DATA     BYTE      SFRPRT2DR
      000000B0H   SFRSYM    DATA     BYTE      SFRPRT3DR
      000000C0H   SFRSYM    DATA     BYTE      SFRPRT4DR
      000000FAH   SFRSYM    DATA     BYTE      SFRPRT15SEL
      000000C8H   SFRSYM    DATA     BYTE      SFRPRT5DR
      000000D8H   SFRSYM    DATA     BYTE      SFRPRT6DR
      00000089H   SFRSYM    DATA     BYTE      SFRPRT0PS
      00000091H   SFRSYM    DATA     BYTE      SFRPRT1PS
      00000099H   SFRSYM    DATA     BYTE      SFRPRT2PS
      000000B1H   SFRSYM    DATA     BYTE      SFRPRT3PS
      000000C1H   SFRSYM    DATA     BYTE      SFRPRT4PS
      000000C9H   SFRSYM    DATA     BYTE      SFRPRT5PS
      000000D9H   SFRSYM    DATA     BYTE      SFRPRT6PS
      000000EAH   SFRSYM    DATA     BYTE      MXAX
      000000F0H   SFRSYM    DATA     BYTE      B
      000000E0H   SFRSYM    DATA     BYTE      ACC
      000000D0H   SFRSYM    DATA     BIT       P
      000000D0H.3 SFRSYM    DATA     BIT       RS0
      000000D0H.4 SFRSYM    DATA     BIT       RS1
      00000083H   SFRSYM    DATA     BYTE      DPH
      000000E8H   SFRSYM    DATA     BYTE      SFRPRT12DR
      00000082H   SFRSYM    DATA     BYTE      DPL
      000000F8H   SFRSYM    DATA     BYTE      SFRPRT15DR
      00000086H   SFRSYM    DATA     BYTE      DPS
      000000E9H   SFRSYM    DATA     BYTE      SFRPRT12PS
      00000093H   SFRSYM    DATA     BYTE      DPX
      000000F9H   SFRSYM    DATA     BYTE      SFRPRT15PS
      000000D0H.5 SFRSYM    DATA     BIT       F0
      000000D0H.1 SFRSYM    DATA     BIT       F1
      0000008AH   SFRSYM    DATA     BYTE      SFRPRT0SEL
      000000D0H   SFRSYM    DATA     BYTE      PSW
      000000A2H   SFRSYM    DATA     BYTE      SFRPRT1SEL
      0000009AH   SFRSYM    DATA     BYTE      SFRPRT2SEL
      000000B2H   SFRSYM    DATA     BYTE      SFRPRT3SEL
      000000C2H   SFRSYM    DATA     BYTE      SFRPRT4SEL

      010067F9H   BLOCK     CODE     ---       LVL=0
LX51 LINKER/LOCATER V4.64.0.0                                                         09/27/2016  11:48:46  PAGE 92


      0100681CH   BLOCK     CODE     NEAR LAB  LVL=1
      00000006H   SYMBOL    DATA     BYTE      readData
      00000007H   SYMBOL    DATA     BYTE      readStatus
      00000003H   SYMBOL    DATA     BYTE      increment_pointer
      00000002H   SYMBOL    DATA     BYTE      int_en
      ---         BLOCKEND  ---      ---       LVL=1
      010067F9H   LINE      CODE     ---       #59
      0100681CH   LINE      CODE     ---       #63
      0100681EH   LINE      CODE     ---       #79
      01006822H   LINE      CODE     ---       #80
      0100682AH   LINE      CODE     ---       #84
      0100682AH   LINE      CODE     ---       #86
      0100682FH   LINE      CODE     ---       #90
      01006830H   LINE      CODE     ---       #95
      01006835H   LINE      CODE     ---       #96
      01006835H   LINE      CODE     ---       #101
      0100683BH   LINE      CODE     ---       #109
      0100683BH   LINE      CODE     ---       #111
      0100683FH   LINE      CODE     ---       #112
      0100683FH   LINE      CODE     ---       #114
      01006844H   LINE      CODE     ---       #141
      01006853H   LINE      CODE     ---       #142
      01006855H   LINE      CODE     ---       #146
      01006858H   LINE      CODE     ---       #147
      01006858H   LINE      CODE     ---       #148
      0100685EH   LINE      CODE     ---       #149
      0100685EH   LINE      CODE     ---       #150
      01006864H   LINE      CODE     ---       #151
      01006864H   LINE      CODE     ---       #153
      0100686AH   LINE      CODE     ---       #156
      01006870H   LINE      CODE     ---       #157
      01006870H   LINE      CODE     ---       #158
      01006872H   LINE      CODE     ---       #159
      01006872H   LINE      CODE     ---       #162
      0100687EH   LINE      CODE     ---       #163
      0100687EH   LINE      CODE     ---       #164
      01006884H   LINE      CODE     ---       #172
      01006884H   LINE      CODE     ---       #173
      01006884H   LINE      CODE     ---       #174
      01006884H   LINE      CODE     ---       #175
      01006888H   LINE      CODE     ---       #187
      0100688FH   LINE      CODE     ---       #189
      ---         BLOCKEND  ---      ---       LVL=0

      ---         MODULE    ---      ---       CYBOOTASMKEIL
      0100763FH   PUBLIC    CODE     NEAR LAB  CyEnterCriticalSection
      01007100H   PUBLIC    CODE     NEAR LAB  _CyDelayCycles
      0100732CH   PUBLIC    CODE     NEAR LAB  _CyDelayUs
      010075BAH   PUBLIC    CODE     NEAR LAB  _CyExitCriticalSection

      ---         MODULE    ---      ---       CYMEM
      02000000H   PUBLIC    XDATA    BYTE      ?_cyconfigcpy?BYTE
      010071A4H   PUBLIC    CODE     NEAR LAB  _cyconfigcpy
      010073D7H   PUBLIC    CODE     NEAR LAB  _cyconfigcpycode
      0100779EH   PUBLIC    CODE     NEAR LAB  _cyread16
      010077A0H   PUBLIC    CODE     NEAR LAB  _cyread16_nodpx
      01007718H   PUBLIC    CODE     NEAR LAB  _cyread24
      0100771AH   PUBLIC    CODE     NEAR LAB  _cyread24_nodpx
      01007846H   PUBLIC    CODE     NEAR LAB  _cyread8
      01007848H   PUBLIC    CODE     NEAR LAB  _cyread8_nodpx
      010077ADH   PUBLIC    CODE     NEAR LAB  _cywrite16
      010077AFH   PUBLIC    CODE     NEAR LAB  _cywrite16_nodpx
      0100774FH   PUBLIC    CODE     NEAR LAB  _cywrite24
      01007751H   PUBLIC    CODE     NEAR LAB  _cywrite24_nodpx
      01007852H   PUBLIC    CODE     NEAR LAB  _cywrite8
LX51 LINKER/LOCATER V4.64.0.0                                                         09/27/2016  11:48:46  PAGE 93


      01007854H   PUBLIC    CODE     NEAR LAB  _cywrite8_nodpx

      ---         MODULE    ---      ---       CYPM
      000000CAH   SFRSYM    DATA     BYTE      SFRPRT5SEL
      000000DAH   SFRSYM    DATA     BYTE      SFRPRT6SEL
      000000D0H.6 SFRSYM    DATA     BIT       AC
      000000A8H.7 SFRSYM    DATA     BIT       EA
      000000A8H   SFRSYM    DATA     BYTE      IE
      00000085H   SFRSYM    DATA     BYTE      DPH1
      00000084H   SFRSYM    DATA     BYTE      DPL1
      000000D0H.7 SFRSYM    DATA     BIT       CY
      000000A0H   SFRSYM    DATA     BYTE      P2AX
      00000095H   SFRSYM    DATA     BYTE      DPX1
      00000081H   SFRSYM    DATA     BYTE      SP
      000000D0H.2 SFRSYM    DATA     BIT       OV
      00000080H   SFRSYM    DATA     BYTE      SFRPRT0DR
      00000090H   SFRSYM    DATA     BYTE      SFRPRT1DR
      000000F2H   SFRSYM    DATA     BYTE      SFRPRT12SEL
      00000098H   SFRSYM    DATA     BYTE      SFRPRT2DR
      000000B0H   SFRSYM    DATA     BYTE      SFRPRT3DR
      000000C0H   SFRSYM    DATA     BYTE      SFRPRT4DR
      000000FAH   SFRSYM    DATA     BYTE      SFRPRT15SEL
      000000C8H   SFRSYM    DATA     BYTE      SFRPRT5DR
      000000D8H   SFRSYM    DATA     BYTE      SFRPRT6DR
      00000089H   SFRSYM    DATA     BYTE      SFRPRT0PS
      00000091H   SFRSYM    DATA     BYTE      SFRPRT1PS
      00000099H   SFRSYM    DATA     BYTE      SFRPRT2PS
      000000B1H   SFRSYM    DATA     BYTE      SFRPRT3PS
      000000C1H   SFRSYM    DATA     BYTE      SFRPRT4PS
      000000C9H   SFRSYM    DATA     BYTE      SFRPRT5PS
      000000D9H   SFRSYM    DATA     BYTE      SFRPRT6PS
      000000EAH   SFRSYM    DATA     BYTE      MXAX
      000000F0H   SFRSYM    DATA     BYTE      B
      000000E0H   SFRSYM    DATA     BYTE      ACC
      000000D0H   SFRSYM    DATA     BIT       P
      000000D0H.3 SFRSYM    DATA     BIT       RS0
      000000D0H.4 SFRSYM    DATA     BIT       RS1
      00000083H   SFRSYM    DATA     BYTE      DPH
      000000E8H   SFRSYM    DATA     BYTE      SFRPRT12DR
      00000082H   SFRSYM    DATA     BYTE      DPL
      000000F8H   SFRSYM    DATA     BYTE      SFRPRT15DR
      00000086H   SFRSYM    DATA     BYTE      DPS
      000000E9H   SFRSYM    DATA     BYTE      SFRPRT12PS
      00000093H   SFRSYM    DATA     BYTE      DPX
      000000F9H   SFRSYM    DATA     BYTE      SFRPRT15PS
      000000D0H.5 SFRSYM    DATA     BIT       F0
      000000D0H.1 SFRSYM    DATA     BIT       F1
      0000008AH   SFRSYM    DATA     BYTE      SFRPRT0SEL
      000000D0H   SFRSYM    DATA     BYTE      PSW
      000000A2H   SFRSYM    DATA     BYTE      SFRPRT1SEL
      0000009AH   SFRSYM    DATA     BYTE      SFRPRT2SEL
      000000B2H   SFRSYM    DATA     BYTE      SFRPRT3SEL
      000000C2H   SFRSYM    DATA     BYTE      SFRPRT4SEL
      02001065H   SYMBOL    XDATA    ---       cyPmClockBackup
      02001075H   SYMBOL    XDATA    ---       cyPmBackup
      00000006H   SYMBOL    DATA     WORD      clkBusDivTmp
      02001064H   SYMBOL    XDATA    BYTE      interruptStatus
      00000005H   SYMBOL    DATA     BYTE      interruptState

      ---         MODULE    ---      ---       CYSPC
      0200110CH   PUBLIC    XDATA    BYTE      SpcLockState
      0100753CH   PUBLIC    CODE     ---       CySpcGetAlgorithm
      0100785EH   PUBLIC    CODE     ---       CySpcUnlock
      010074E4H   PUBLIC    CODE     ---       CySpcLock
      010072FBH   PUBLIC    CODE     ---       _CySpcGetTemp
LX51 LINKER/LOCATER V4.64.0.0                                                         09/27/2016  11:48:46  PAGE 94


      02000012H   PUBLIC    XDATA    BYTE      ?_CySpcWriteRow?BYTE
      01006DF5H   PUBLIC    CODE     ---       _CySpcWriteRow
      02000012H   PUBLIC    XDATA    BYTE      ?_CySpcLoadRow?BYTE
      01006AF0H   PUBLIC    CODE     ---       _CySpcLoadRow
      01006C37H   PUBLIC    CODE     ---       _CySpcReadData
      01007654H   PUBLIC    CODE     ---       CySpcStart
      000000CAH   SFRSYM    DATA     BYTE      SFRPRT5SEL
      000000DAH   SFRSYM    DATA     BYTE      SFRPRT6SEL
      000000D0H.6 SFRSYM    DATA     BIT       AC
      000000A8H.7 SFRSYM    DATA     BIT       EA
      000000A8H   SFRSYM    DATA     BYTE      IE
      00000085H   SFRSYM    DATA     BYTE      DPH1
      00000084H   SFRSYM    DATA     BYTE      DPL1
      000000D0H.7 SFRSYM    DATA     BIT       CY
      000000A0H   SFRSYM    DATA     BYTE      P2AX
      00000095H   SFRSYM    DATA     BYTE      DPX1
      00000081H   SFRSYM    DATA     BYTE      SP
      000000D0H.2 SFRSYM    DATA     BIT       OV
      00000080H   SFRSYM    DATA     BYTE      SFRPRT0DR
      00000090H   SFRSYM    DATA     BYTE      SFRPRT1DR
      000000F2H   SFRSYM    DATA     BYTE      SFRPRT12SEL
      00000098H   SFRSYM    DATA     BYTE      SFRPRT2DR
      000000B0H   SFRSYM    DATA     BYTE      SFRPRT3DR
      000000C0H   SFRSYM    DATA     BYTE      SFRPRT4DR
      000000FAH   SFRSYM    DATA     BYTE      SFRPRT15SEL
      000000C8H   SFRSYM    DATA     BYTE      SFRPRT5DR
      000000D8H   SFRSYM    DATA     BYTE      SFRPRT6DR
      00000089H   SFRSYM    DATA     BYTE      SFRPRT0PS
      00000091H   SFRSYM    DATA     BYTE      SFRPRT1PS
      00000099H   SFRSYM    DATA     BYTE      SFRPRT2PS
      000000B1H   SFRSYM    DATA     BYTE      SFRPRT3PS
      000000C1H   SFRSYM    DATA     BYTE      SFRPRT4PS
      000000C9H   SFRSYM    DATA     BYTE      SFRPRT5PS
      000000D9H   SFRSYM    DATA     BYTE      SFRPRT6PS
      000000EAH   SFRSYM    DATA     BYTE      MXAX
      000000F0H   SFRSYM    DATA     BYTE      B
      000000E0H   SFRSYM    DATA     BYTE      ACC
      000000D0H   SFRSYM    DATA     BIT       P
      000000D0H.3 SFRSYM    DATA     BIT       RS0
      000000D0H.4 SFRSYM    DATA     BIT       RS1
      00000083H   SFRSYM    DATA     BYTE      DPH
      000000E8H   SFRSYM    DATA     BYTE      SFRPRT12DR
      00000082H   SFRSYM    DATA     BYTE      DPL
      000000F8H   SFRSYM    DATA     BYTE      SFRPRT15DR
      00000086H   SFRSYM    DATA     BYTE      DPS
      000000E9H   SFRSYM    DATA     BYTE      SFRPRT12PS
      00000093H   SFRSYM    DATA     BYTE      DPX
      000000F9H   SFRSYM    DATA     BYTE      SFRPRT15PS
      000000D0H.5 SFRSYM    DATA     BIT       F0
      000000D0H.1 SFRSYM    DATA     BIT       F1
      0000008AH   SFRSYM    DATA     BYTE      SFRPRT0SEL
      000000D0H   SFRSYM    DATA     BYTE      PSW
      000000A2H   SFRSYM    DATA     BYTE      SFRPRT1SEL
      0000009AH   SFRSYM    DATA     BYTE      SFRPRT2SEL
      000000B2H   SFRSYM    DATA     BYTE      SFRPRT3SEL
      000000C2H   SFRSYM    DATA     BYTE      SFRPRT4SEL

      01007654H   BLOCK     CODE     ---       LVL=0
      01007654H   BLOCK     CODE     NEAR LAB  LVL=1
      00000007H   SYMBOL    DATA     BYTE      interruptState
      ---         BLOCKEND  ---      ---       LVL=1
      01007654H   LINE      CODE     ---       #78
      01007654H   LINE      CODE     ---       #79
      01007654H   LINE      CODE     ---       #81
      01007657H   LINE      CODE     ---       #83
LX51 LINKER/LOCATER V4.64.0.0                                                         09/27/2016  11:48:46  PAGE 95


      0100765EH   LINE      CODE     ---       #84
      01007665H   LINE      CODE     ---       #87
      01007668H   LINE      CODE     ---       #88
      ---         BLOCKEND  ---      ---       LVL=0
      00000007H   SYMBOL    DATA     BYTE      interruptState

      01006C37H   BLOCK     CODE     ---       LVL=0
      0200000FH   SYMBOL    XDATA    ---       buffer
      02000012H   SYMBOL    XDATA    BYTE      size
      01006C45H   BLOCK     CODE     NEAR LAB  LVL=1
      02000013H   SYMBOL    XDATA    BYTE      i
      ---         BLOCKEND  ---      ---       LVL=1
      01006C37H   LINE      CODE     ---       #135
      01006C45H   LINE      CODE     ---       #136
      01006C45H   LINE      CODE     ---       #139
      01006C53H   LINE      CODE     ---       #140
      01006C53H   LINE      CODE     ---       #141
      01006C61H   LINE      CODE     ---       #142
      01006C61H   LINE      CODE     ---       #143
      01006C68H   LINE      CODE     ---       #144
      01006C6AH   LINE      CODE     ---       #145
      01006C89H   LINE      CODE     ---       #146
      01006C91H   LINE      CODE     ---       #148
      01006C96H   LINE      CODE     ---       #149
      ---         BLOCKEND  ---      ---       LVL=0
      00000005H   SYMBOL    DATA     BYTE      status
      00000007H   SYMBOL    DATA     BYTE      i

      01006AF0H   BLOCK     CODE     ---       LVL=0
      00000007H   SYMBOL    DATA     BYTE      array
      02000013H   SYMBOL    XDATA    ---       buffer
      02000016H   SYMBOL    XDATA    WORD      size
      01006AFBH   BLOCK     CODE     NEAR LAB  LVL=1
      02000018H   SYMBOL    XDATA    BYTE      status
      00000006H   SYMBOL    DATA     WORD      i
      ---         BLOCKEND  ---      ---       LVL=1
      01006AF0H   LINE      CODE     ---       #258
      01006AFBH   LINE      CODE     ---       #259
      01006AFBH   LINE      CODE     ---       #260
      01006B01H   LINE      CODE     ---       #264
      01006B09H   LINE      CODE     ---       #265
      01006B09H   LINE      CODE     ---       #266
      01006B0FH   LINE      CODE     ---       #267
      01006B12H   LINE      CODE     ---       #268
      01006B15H   LINE      CODE     ---       #271
      01006B1DH   LINE      CODE     ---       #272
      01006B1DH   LINE      CODE     ---       #273
      01006B22H   LINE      CODE     ---       #275
      01006B32H   LINE      CODE     ---       #276
      01006B32H   LINE      CODE     ---       #277
      01006B48H   LINE      CODE     ---       #278
      01006B4FH   LINE      CODE     ---       #279
      01006B4FH   LINE      CODE     ---       #281
      01006B4FH   LINE      CODE     ---       #282
      01006B55H   LINE      CODE     ---       #283
      01006B55H   LINE      CODE     ---       #284
      01006B57H   LINE      CODE     ---       #286
      01006B57H   LINE      CODE     ---       #287
      01006B5DH   LINE      CODE     ---       #288
      01006B5DH   LINE      CODE     ---       #290
      01006B62H   LINE      CODE     ---       #291
      ---         BLOCKEND  ---      ---       LVL=0

      01006DF5H   BLOCK     CODE     ---       LVL=0
      00000004H   SYMBOL    DATA     BYTE      array
LX51 LINKER/LOCATER V4.64.0.0                                                         09/27/2016  11:48:46  PAGE 96


      02000013H   SYMBOL    XDATA    WORD      address
      00000003H   SYMBOL    DATA     BYTE      tempPolarity
      02000016H   SYMBOL    XDATA    BYTE      tempMagnitude
      01006DFFH   BLOCK     CODE     NEAR LAB  LVL=1
      00000005H   SYMBOL    DATA     BYTE      status
      ---         BLOCKEND  ---      ---       LVL=1
      01006DF5H   LINE      CODE     ---       #464
      01006DFFH   LINE      CODE     ---       #466
      01006DFFH   LINE      CODE     ---       #467
      01006E01H   LINE      CODE     ---       #470
      01006E09H   LINE      CODE     ---       #471
      01006E09H   LINE      CODE     ---       #472
      01006E0FH   LINE      CODE     ---       #473
      01006E12H   LINE      CODE     ---       #474
      01006E15H   LINE      CODE     ---       #477
      01006E1DH   LINE      CODE     ---       #478
      01006E1DH   LINE      CODE     ---       #479
      01006E22H   LINE      CODE     ---       #480
      01006E2AH   LINE      CODE     ---       #481
      01006E34H   LINE      CODE     ---       #482
      01006E36H   LINE      CODE     ---       #483
      01006E3EH   LINE      CODE     ---       #484
      01006E40H   LINE      CODE     ---       #486
      01006E40H   LINE      CODE     ---       #487
      01006E42H   LINE      CODE     ---       #488
      01006E42H   LINE      CODE     ---       #489
      01006E44H   LINE      CODE     ---       #491
      01006E44H   LINE      CODE     ---       #492
      01006E46H   LINE      CODE     ---       #493
      01006E46H   LINE      CODE     ---       #495
      01006E48H   LINE      CODE     ---       #496
      ---         BLOCKEND  ---      ---       LVL=0
      00000007H   SYMBOL    DATA     BYTE      array
      00000005H   SYMBOL    DATA     BYTE      sectorNumber
      00000006H   SYMBOL    DATA     BYTE      status

      010072FBH   BLOCK     CODE     ---       LVL=0
      00000007H   SYMBOL    DATA     BYTE      numSamples
      010072FBH   BLOCK     CODE     NEAR LAB  LVL=1
      00000006H   SYMBOL    DATA     BYTE      status
      ---         BLOCKEND  ---      ---       LVL=1
      010072FBH   LINE      CODE     ---       #573
      010072FBH   LINE      CODE     ---       #574
      010072FBH   LINE      CODE     ---       #575
      010072FDH   LINE      CODE     ---       #578
      01007305H   LINE      CODE     ---       #579
      01007305H   LINE      CODE     ---       #580
      0100730BH   LINE      CODE     ---       #581
      0100730EH   LINE      CODE     ---       #582
      01007311H   LINE      CODE     ---       #585
      01007319H   LINE      CODE     ---       #586
      01007319H   LINE      CODE     ---       #587
      0100731EH   LINE      CODE     ---       #588
      01007320H   LINE      CODE     ---       #590
      01007320H   LINE      CODE     ---       #591
      01007322H   LINE      CODE     ---       #592
      01007322H   LINE      CODE     ---       #593
      01007324H   LINE      CODE     ---       #595
      01007324H   LINE      CODE     ---       #596
      01007326H   LINE      CODE     ---       #597
      01007326H   LINE      CODE     ---       #599
      01007328H   LINE      CODE     ---       #600
      ---         BLOCKEND  ---      ---       LVL=0

      010074E4H   BLOCK     CODE     ---       LVL=0
LX51 LINKER/LOCATER V4.64.0.0                                                         09/27/2016  11:48:46  PAGE 97


      010074E4H   BLOCK     CODE     NEAR LAB  LVL=1
      02000012H   SYMBOL    XDATA    BYTE      status
      00000007H   SYMBOL    DATA     BYTE      interruptState
      ---         BLOCKEND  ---      ---       LVL=1
      010074E4H   LINE      CODE     ---       #618
      010074E4H   LINE      CODE     ---       #619
      010074E4H   LINE      CODE     ---       #620
      010074EAH   LINE      CODE     ---       #624
      010074EDH   LINE      CODE     ---       #626
      010074F3H   LINE      CODE     ---       #627
      010074F3H   LINE      CODE     ---       #628
      010074F5H   LINE      CODE     ---       #629
      010074FAH   LINE      CODE     ---       #647
      010074FAH   LINE      CODE     ---       #650
      010074FDH   LINE      CODE     ---       #652
      01007502H   LINE      CODE     ---       #653
      ---         BLOCKEND  ---      ---       LVL=0

      0100785EH   BLOCK     CODE     ---       LVL=0
      0100785EH   BLOCK     CODE     NEAR LAB  LVL=1
      00000007H   SYMBOL    DATA     BYTE      interruptState
      ---         BLOCKEND  ---      ---       LVL=1
      0100785EH   LINE      CODE     ---       #670
      0100785EH   LINE      CODE     ---       #671
      0100785EH   LINE      CODE     ---       #675
      01007861H   LINE      CODE     ---       #678
      01007866H   LINE      CODE     ---       #698
      01007869H   LINE      CODE     ---       #699
      ---         BLOCKEND  ---      ---       LVL=0

      0100753CH   BLOCK     CODE     ---       LVL=0
      0100753CH   BLOCK     CODE     NEAR LAB  LVL=1
      00000007H   SYMBOL    DATA     BYTE      status
      ---         BLOCKEND  ---      ---       LVL=1
      0100753CH   LINE      CODE     ---       #716
      0100753CH   LINE      CODE     ---       #717
      0100753CH   LINE      CODE     ---       #718
      0100753EH   LINE      CODE     ---       #721
      01007546H   LINE      CODE     ---       #722
      01007546H   LINE      CODE     ---       #723
      0100754CH   LINE      CODE     ---       #724
      0100754FH   LINE      CODE     ---       #725
      01007552H   LINE      CODE     ---       #726
      01007554H   LINE      CODE     ---       #728
      01007554H   LINE      CODE     ---       #729
      01007556H   LINE      CODE     ---       #730
      01007556H   LINE      CODE     ---       #732
      01007556H   LINE      CODE     ---       #733
      ---         BLOCKEND  ---      ---       LVL=0

      ---         MODULE    ---      ---       SPI_IMU_INTCLOCK
      010077BCH   PUBLIC    CODE     ---       SPI_IMU_IntClock_Start

      010077BCH   BLOCK     CODE     ---       LVL=0
      010077BCH   LINE      CODE     ---       #45
      010077BCH   LINE      CODE     ---       #46
      010077BCH   LINE      CODE     ---       #48
      010077C3H   LINE      CODE     ---       #49
      010077CAH   LINE      CODE     ---       #50
      ---         BLOCKEND  ---      ---       LVL=0
      00000007H   SYMBOL    DATA     BYTE      state
      00000007H   SYMBOL    DATA     BYTE      modeBitMask
      00000007H   SYMBOL    DATA     BYTE      modeBitMask
      00000007H   SYMBOL    DATA     BYTE      oldSrc

LX51 LINKER/LOCATER V4.64.0.0                                                         09/27/2016  11:48:46  PAGE 98


      ---         MODULE    ---      ---       ?C?FPADD
      01002621H   PUBLIC    CODE     ---       ?C?FPADD
      0100261DH   PUBLIC    CODE     ---       ?C?FPSUB

      ---         MODULE    ---      ---       ?C?FPMUL
      01002712H   PUBLIC    CODE     ---       ?C?FPMUL

      ---         MODULE    ---      ---       ?C?FPCMP
      0100281AH   PUBLIC    CODE     ---       ?C?FPCMP
      01002818H   PUBLIC    CODE     ---       ?C?FPCMP3

      ---         MODULE    ---      ---       ?C?FCAST
      0100289BH   PUBLIC    CODE     ---       ?C?FCASTC
      01002896H   PUBLIC    CODE     ---       ?C?FCASTI
      01002891H   PUBLIC    CODE     ---       ?C?FCASTL

      ---         MODULE    ---      ---       ?C?CASTF
      010028CFH   PUBLIC    CODE     ---       ?C?CASTF

      ---         MODULE    ---      ---       PRINTF
      0200006EH   PUBLIC    XDATA    ---       ?_PRINTF?BYTE
      0200006EH   PUBLIC    XDATA    ---       ?_SPRINTF?BYTE
      01004DCCH   PUBLIC    CODE     ---       _PRINTF
      01004DC6H   PUBLIC    CODE     ---       _SPRINTF

      ---         MODULE    ---      ---       ?C?FPGETOPN
      01002906H   PUBLIC    CODE     ---       ?C?FPGETOPN2
      0100293BH   PUBLIC    CODE     ---       ?C?FPNANRESULT
      01002945H   PUBLIC    CODE     ---       ?C?FPOVERFLOW
      0100291DH   PUBLIC    CODE     ---       ?C?FPRESULT
      01002931H   PUBLIC    CODE     ---       ?C?FPRESULT2
      01002942H   PUBLIC    CODE     ---       ?C?FPUNDERFLOW

      ---         MODULE    ---      ---       ?C?FPROUND
      01002950H   PUBLIC    CODE     ---       ?C?FPROUND

      ---         MODULE    ---      ---       ?C?FPCONVERT
      0100298DH   PUBLIC    CODE     ---       ?C?FPCONVERT

      ---         MODULE    ---      ---       ?C?FPDIV
      01002A95H   PUBLIC    CODE     ---       ?C?FPDIV

      ---         MODULE    ---      ---       ?C?FTNPWR
      01002B62H   PUBLIC    CODE     ---       ?C?FTNPWR

      ---         MODULE    ---      ---       ?C_INIT
      01005C9DH   PUBLIC    CODE     ---       ?C_START

      ---         MODULE    ---      ---       ?C?CLDPTR
      01002BA2H   PUBLIC    CODE     ---       ?C?CLDPTR

      ---         MODULE    ---      ---       ?C?CLDOPTR
      01002BBBH   PUBLIC    CODE     ---       ?C?CLDOPTR

      ---         MODULE    ---      ---       ?C?CSTPTR
      01002BE8H   PUBLIC    CODE     ---       ?C?CSTPTR

      ---         MODULE    ---      ---       ?C?LMUL
      01002BFAH   PUBLIC    CODE     ---       ?C?LMUL

      ---         MODULE    ---      ---       ?C?ULDIV
      01002C85H   PUBLIC    CODE     ---       ?C?ULDIV

      ---         MODULE    ---      ---       ?C?SLDIV
      01006FC5H   PUBLIC    CODE     ---       ?C?SLDIV
LX51 LINKER/LOCATER V4.64.0.0                                                         09/27/2016  11:48:46  PAGE 99



      ---         MODULE    ---      ---       ?C?LNEG
      01002D17H   PUBLIC    CODE     ---       ?C?LNEG

      ---         MODULE    ---      ---       ?C?SLCMP
      01002D25H   PUBLIC    CODE     ---       ?C?SLCMP

      ---         MODULE    ---      ---       ?C?ULCMP
      01002D3BH   PUBLIC    CODE     ---       ?C?ULCMP

      ---         MODULE    ---      ---       ?C?ULSHR
      01002D4CH   PUBLIC    CODE     ---       ?C?ULSHR

      ---         MODULE    ---      ---       ?C?SLSHR
      01002D5FH   PUBLIC    CODE     ---       ?C?SLSHR

      ---         MODULE    ---      ---       ?C?LSHL
      01002D73H   PUBLIC    CODE     ---       ?C?LSHL

      ---         MODULE    ---      ---       ?C?LLDPTR
      01002D86H   PUBLIC    CODE     ---       ?C?LLDPTR

      ---         MODULE    ---      ---       ?C?LSTPTR
      01002DA6H   PUBLIC    CODE     ---       ?C?LSTPTR

      ---         MODULE    ---      ---       ?C?LSTXDATA
      01002DC0H   PUBLIC    CODE     ---       ?C?LSTXDATA

      ---         MODULE    ---      ---       ?C?OFFXADD
      01002DCCH   PUBLIC    CODE     ---       ?C?OFFXADD

      ---         MODULE    ---      ---       ?C?PLDIXDATA
      01002DD8H   PUBLIC    CODE     ---       ?C?PLDIXDATA

      ---         MODULE    ---      ---       ?C?PSTXDATA
      01002DEFH   PUBLIC    CODE     ---       ?C?PSTXDATA

      ---         MODULE    ---      ---       ?C?CCASE
      01002DF8H   PUBLIC    CODE     ---       ?C?CCASE

      ---         MODULE    ---      ---       ?C_XBP
      0000001BH   PUBLIC    DATA     ---       ?C_XBP

      ---         MODULE    ---      ---       ?C?ADDXBP
      01002E1EH   PUBLIC    CODE     ---       ?C?ADDXBP

      ---         MODULE    ---      ---       ?C?LIMUL
      01002E42H   PUBLIC    CODE     ---       ?C?LIMUL

      ---         MODULE    ---      ---       PUTCHAR
      010073B0H   PUBLIC    CODE     ---       _PUTCHAR

      ---         MODULE    ---      ---       STRCAT
      020004E5H   PUBLIC    XDATA    ---       ?_STRCAT?BYTE
      01006B63H   PUBLIC    CODE     ---       _STRCAT

      ---         MODULE    ---      ---       STRLEN
      01007669H   PUBLIC    CODE     ---       _STRLEN

      ---         MODULE    ---      ---       ?C?MEMSET
      01002E6FH   PUBLIC    CODE     ---       ?C?MEMSET

      ---         MODULE    ---      ---       ?C?COPYAMD
      01002F57H   PUBLIC    CODE     ---       ?C?COPYAMD

LX51 LINKER/LOCATER V4.64.0.0                                                         09/27/2016  11:48:46  PAGE 100


      ---         MODULE    ---      ---       ?C?STRCPYAMD
      01003035H   PUBLIC    CODE     ---       ?C?STRCPYAMD

      ---         MODULE    ---      ---       ?C?IILDX
      01003052H   PUBLIC    CODE     ---       ?C?IILDX

      ---         MODULE    ---      ---       ?C?ILDIX
      01003068H   PUBLIC    CODE     ---       ?C?ILDIX

      ---         MODULE    ---      ---       ?C?LLDIDATA
      0100307EH   PUBLIC    CODE     ---       ?C?LLDIDATA

      ---         MODULE    ---      ---       ?C?LLDXDATA
      0100308AH   PUBLIC    CODE     ---       ?C?LLDXDATA

      ---         MODULE    ---      ---       ?C?LLDPDATA
      01003096H   PUBLIC    CODE     ---       ?C?LLDPDATA

      ---         MODULE    ---      ---       ?C?LLDCODE
      010030A2H   PUBLIC    CODE     ---       ?C?LLDCODE

      ---         MODULE    ---      ---       ?C?LSTIDATA
      010030B2H   PUBLIC    CODE     ---       ?C?LSTIDATA

      ---         MODULE    ---      ---       ?C?LSTPDATA
      010030BEH   PUBLIC    CODE     ---       ?C?LSTPDATA



INTER-MODULE CROSS-REFERENCE LISTING


NAME . . . . . . . . . . . . . . . . . . CLASS    MODULE NAMES
==============================================================

?_Bootloadable_SetFlashByte?BYTE . . . . XDATA    BOOTLOADABLE  
?_calc_turns_fcn?BYTE. . . . . . . . . . XDATA    UTILS  
?_cyconfigcpy?BYTE . . . . . . . . . . . XDATA    CYMEM  CYFITTER_CFG  
?_CySpcLoadMultiByte?BYTE. . . . . . . . XDATA    CYSPC  EEPROM  
?_CySpcLoadRow?BYTE. . . . . . . . . . . XDATA    CYSPC  EEPROM  
?_CySpcLoadRowFull?BYTE. . . . . . . . . XDATA    CYSPC  CYFLASH  
?_CySpcWriteRow?BYTE . . . . . . . . . . XDATA    CYSPC  CYFLASH  EEPROM  
?_CyWriteRowFull?BYTE. . . . . . . . . . XDATA    CYFLASH  
?_my_mod?BYTE. . . . . . . . . . . . . . XDATA    UTILS  
?_PRINTF?BYTE. . . . . . . . . . . . . . XDATA    PRINTF  
?_SPRINTF?BYTE . . . . . . . . . . . . . XDATA    PRINTF  COMMAND_PROCESSING  
?_strcat?BYTE. . . . . . . . . . . . . . XDATA    STRCAT  COMMAND_PROCESSING  
?C?ADDXBP. . . . . . . . . . . . . . . . CODE     ?C?ADDXBP  CYLIB  
?C?CASTF . . . . . . . . . . . . . . . . CODE     ?C?CASTF  UTILS  
?C?CCASE . . . . . . . . . . . . . . . . CODE     ?C?CCASE  COMMAND_PROCESSING  PRINTF  
?C?CLDOPTR . . . . . . . . . . . . . . . CODE     ?C?CLDOPTR  PRINTF  
?C?CLDPTR. . . . . . . . . . . . . . . . CODE     ?C?CLDPTR  COMMAND_PROCESSING  CYSPC  PRINTF  SPI_IMU  STRCAT  STRLEN 
                                                   UART_RS485  UTILS  
?C?CODESEG . . . . . . . . . . . . . . . NUMBER   ** LX51 GENERATED **  
?C?COPYAMD . . . . . . . . . . . . . . . CODE     ?C?COPYAMD  COMMAND_PROCESSING  INTERRUPTIONS  
?C?CSTPTR. . . . . . . . . . . . . . . . CODE     ?C?CSTPTR  CYSPC  PRINTF  STRCAT  
?C?FCASTC. . . . . . . . . . . . . . . . CODE     ?C?FCAST  COMMAND_PROCESSING  
?C?FCASTI. . . . . . . . . . . . . . . . CODE     ?C?FCAST  
?C?FCASTL. . . . . . . . . . . . . . . . CODE     ?C?FCAST  
?C?FPADD . . . . . . . . . . . . . . . . CODE     ?C?FPADD  ?C?FPCONVERT  UTILS  
?C?FPCMP . . . . . . . . . . . . . . . . CODE     ?C?FPCMP  
?C?FPCMP3. . . . . . . . . . . . . . . . CODE     ?C?FPCMP  UTILS  
?C?FPCONVERT . . . . . . . . . . . . . . CODE     ?C?FPCONVERT  PRINTF  
?C?FPDIV . . . . . . . . . . . . . . . . CODE     ?C?FPDIV  ?C?FPCONVERT  
?C?FPGETOPN2 . . . . . . . . . . . . . . CODE     ?C?FPGETOPN  ?C?FPADD  ?C?FPDIV  ?C?FPMUL  
LX51 LINKER/LOCATER V4.64.0.0                                                         09/27/2016  11:48:46  PAGE 101


?C?FPMUL . . . . . . . . . . . . . . . . CODE     ?C?FPMUL  ?C?FPCONVERT  ?C?FTNPWR  COMMAND_PROCESSING  
?C?FPNANRESULT . . . . . . . . . . . . . CODE     ?C?FPGETOPN  ?C?FPADD  ?C?FPDIV  ?C?FPMUL  
?C?FPOVERFLOW. . . . . . . . . . . . . . CODE     ?C?FPGETOPN  ?C?FPADD  ?C?FPDIV  ?C?FPMUL  
?C?FPRESULT. . . . . . . . . . . . . . . CODE     ?C?FPGETOPN  ?C?FPADD  ?C?FPDIV  ?C?FPMUL  
?C?FPRESULT2 . . . . . . . . . . . . . . CODE     ?C?FPGETOPN  ?C?FPDIV  ?C?FPMUL  
?C?FPROUND . . . . . . . . . . . . . . . CODE     ?C?FPROUND  PRINTF  
?C?FPSUB . . . . . . . . . . . . . . . . CODE     ?C?FPADD  
?C?FPUNDERFLOW . . . . . . . . . . . . . CODE     ?C?FPGETOPN  ?C?FPADD  ?C?FPDIV  ?C?FPMUL  
?C?FTNPWR. . . . . . . . . . . . . . . . CODE     ?C?FTNPWR  ?C?FPCONVERT  
?C?IILDX . . . . . . . . . . . . . . . . CODE     ?C?IILDX  STRCAT  
?C?ILDIX . . . . . . . . . . . . . . . . CODE     ?C?ILDIX  STRCAT  
?C?LIMUL . . . . . . . . . . . . . . . . CODE     ?C?LIMUL  COMMAND_PROCESSING  CYSPC  
?C?LLDCODE . . . . . . . . . . . . . . . CODE     ?C?LLDCODE  ?C?LLDPTR  
?C?LLDIDATA. . . . . . . . . . . . . . . CODE     ?C?LLDIDATA  ?C?LLDPTR  
?C?LLDPDATA. . . . . . . . . . . . . . . CODE     ?C?LLDPDATA  ?C?LLDPTR  
?C?LLDPTR. . . . . . . . . . . . . . . . CODE     ?C?LLDPTR  CYLIB  
?C?LLDXDATA. . . . . . . . . . . . . . . CODE     ?C?LLDXDATA  ?C?LLDPTR  
?C?LMUL. . . . . . . . . . . . . . . . . CODE     ?C?LMUL  CYLIB  CYPM  UTILS  
?C?LNEG. . . . . . . . . . . . . . . . . CODE     ?C?LNEG  ?C?CASTF  ?C?FCAST  UTILS  
?C?LSHL. . . . . . . . . . . . . . . . . CODE     ?C?LSHL  CYLIB  UTILS  
?C?LSTIDATA. . . . . . . . . . . . . . . CODE     ?C?LSTIDATA  ?C?LSTPTR  
?C?LSTPDATA. . . . . . . . . . . . . . . CODE     ?C?LSTPDATA  ?C?LSTPTR  
?C?LSTPTR. . . . . . . . . . . . . . . . CODE     ?C?LSTPTR  CYLIB  
?C?LSTXDATA. . . . . . . . . . . . . . . CODE     ?C?LSTXDATA  ?C?LSTPTR  BOOTLOADABLE  COMMAND_PROCESSING  CYFITTER_CFG
                                                    CYLIB  CYSPC  INTERRUPTIONS  UTILS  
?C?MEMSET. . . . . . . . . . . . . . . . CODE     ?C?MEMSET  IMU_FUNCTIONS  ISR_IMU  
?C?OFFXADD . . . . . . . . . . . . . . . CODE     ?C?OFFXADD  COMMAND_PROCESSING  IMU_FUNCTIONS  
?C?PLDIXDATA . . . . . . . . . . . . . . CODE     ?C?PLDIXDATA  PRINTF  
?C?PSTXDATA. . . . . . . . . . . . . . . CODE     ?C?PSTXDATA  PRINTF  
?C?SLCMP . . . . . . . . . . . . . . . . CODE     ?C?SLCMP  UTILS  
?C?SLDIV . . . . . . . . . . . . . . . . CODE     ?C?SLDIV  UTILS  
?C?SLSHR . . . . . . . . . . . . . . . . CODE     ?C?SLSHR  UTILS  
?C?STRCPYAMD . . . . . . . . . . . . . . CODE     ?C?STRCPYAMD  COMMAND_PROCESSING  
?C?ULCMP . . . . . . . . . . . . . . . . CODE     ?C?ULCMP  CYFLASH  
?C?ULDIV . . . . . . . . . . . . . . . . CODE     ?C?ULDIV  ?C?SLDIV  BOOTLOADABLE  CYLIB  CYPM  UTILS  
?C?ULSHR . . . . . . . . . . . . . . . . CODE     ?C?ULSHR  COMMAND_PROCESSING  CYLIB  
?C?XDATASEG. . . . . . . . . . . . . . . NUMBER   ** LX51 GENERATED **  
?C?XPAGE1RST . . . . . . . . . . . . . . NUMBER   ?C_STARTUP  INTERRUPTIONS  ISR_IMU  ISR_RS485_RX  ISR_WATCHDOG  UART_R
                                                  S485_INT  
?C?XPAGE1SFR . . . . . . . . . . . . . . DATA     ?C_STARTUP  INTERRUPTIONS  ISR_IMU  ISR_RS485_RX  ISR_WATCHDOG  UART_R
                                                  S485_INT  
?C_START . . . . . . . . . . . . . . . . CODE     ?C_INIT  ?C_STARTUP  
?C_STARTUP . . . . . . . . . . . . . . . CODE     ?C_STARTUP  MAIN  
?C_XBP . . . . . . . . . . . . . . . . . DATA     ?C_XBP  ?C?ADDXBP  ?C_STARTUP  CYLIB  
_?CyDelay. . . . . . . . . . . . . . . . CODE     CYLIB  COMMAND_PROCESSING  CYBOOTASMKEIL  IMU_FUNCTIONS  MAIN  
_?CyDelayFreq. . . . . . . . . . . . . . CODE     CYLIB  
_?CyHalt . . . . . . . . . . . . . . . . CODE     CYLIB  
_Bootloadable_SetFlashByte . . . . . . . CODE     BOOTLOADABLE  
_calc_turns_fcn. . . . . . . . . . . . . CODE     UTILS  
_cfg_write_bytes . . . . . . . . . . . . CODE     CYMEM  
_cfg_write_bytes_code. . . . . . . . . . CODE     CYMEM  
_check_enc_data. . . . . . . . . . . . . CODE     UTILS  
_Chip_Select_A_Write . . . . . . . . . . CODE     CHIP_SELECT_A  IMU_FUNCTIONS  
_Chip_Select_B_Write . . . . . . . . . . CODE     CHIP_SELECT_B  IMU_FUNCTIONS  
_ChipSelector. . . . . . . . . . . . . . CODE     IMU_FUNCTIONS  ISR_IMU  
_CLOCK_UART_ClearModeRegister. . . . . . CODE     CLOCK_UART  
_CLOCK_UART_SetDividerRegister . . . . . CODE     CLOCK_UART  COMMAND_PROCESSING  
_CLOCK_UART_SetModeRegister. . . . . . . CODE     CLOCK_UART  
_CLOCK_UART_SetSourceRegister. . . . . . CODE     CLOCK_UART  
_CLOCK_UART_StandbyPower . . . . . . . . CODE     CLOCK_UART  
_commWrite . . . . . . . . . . . . . . . CODE     COMMAND_PROCESSING  ISR_IMU  
_CyBusClk_SetDivider . . . . . . . . . . CODE     CYLIB  CYPM  
_cyconfigcpy . . . . . . . . . . . . . . CODE     CYMEM  CYFITTER_CFG  
_cyconfigcpycode . . . . . . . . . . . . CODE     CYMEM  CYFITTER_CFG  
_CyCpuClk_SetDivider . . . . . . . . . . CODE     CYLIB  
LX51 LINKER/LOCATER V4.64.0.0                                                         09/27/2016  11:48:46  PAGE 102


_CyDelay . . . . . . . . . . . . . . . . CODE     CYBOOTASMKEIL  
_CyDelayCycles . . . . . . . . . . . . . CODE     CYBOOTASMKEIL  CYFITTER_CFG  CYLIB  CYPM  
_CyDelayUs . . . . . . . . . . . . . . . CODE     CYBOOTASMKEIL  CYFLASH  CYLIB  CYPM  CYSPC  
_CyEnableInts. . . . . . . . . . . . . . CODE     CYLIB  
_CyExitCriticalSection . . . . . . . . . CODE     CYBOOTASMKEIL  CYFLASH  CYLIB  CYPM  CYSPC  EEPROM  FF_STATUS  MY_TIME
                                                  R  SPI_IMU  UART_RS485  
_CyFlash_SetWaitCycles . . . . . . . . . CODE     CYFLASH  CYPM  
_CyGetUniqueId . . . . . . . . . . . . . CODE     CYLIB  
_CyILO_SetPowerMode. . . . . . . . . . . CODE     CYLIB  CYPM  
_CyILO_SetSource . . . . . . . . . . . . CODE     CYLIB  
_CyIMO_SetFreq . . . . . . . . . . . . . CODE     CYLIB  CYPM  
_CyIMO_SetSource . . . . . . . . . . . . CODE     CYLIB  CYPM  
_CyIMO_Start . . . . . . . . . . . . . . CODE     CYLIB  CYPM  
_CyIntGetPriority. . . . . . . . . . . . CODE     CYLIB  
_CyIntGetState . . . . . . . . . . . . . CODE     CYLIB  
_CyIntGetVector. . . . . . . . . . . . . CODE     CYLIB  
_CyIntSetPriority. . . . . . . . . . . . CODE     CYLIB  UART_RS485  
_CyIntSetVector. . . . . . . . . . . . . CODE     CYLIB  UART_RS485  
_CyMasterClk_SetDivider. . . . . . . . . CODE     CYLIB  CYPM  
_CyMasterClk_SetSource . . . . . . . . . CODE     CYLIB  CYPM  
_cymemzero . . . . . . . . . . . . . . . CODE     CYMEM  
_CyPLL_OUT_SetPQ . . . . . . . . . . . . CODE     CYLIB  
_CyPLL_OUT_SetSource . . . . . . . . . . CODE     CYLIB  
_CyPLL_OUT_Start . . . . . . . . . . . . CODE     CYLIB  CYPM  
_CyPmAltAct. . . . . . . . . . . . . . . CODE     CYPM  
_CyPmCtwSetInterval. . . . . . . . . . . CODE     CYPM  
_CyPmFtwSetInterval. . . . . . . . . . . CODE     CYPM  CYLIB  
_CyPmHibernateEx . . . . . . . . . . . . CODE     CYPM  
_CyPmReadStatus. . . . . . . . . . . . . CODE     CYPM  CYLIB  
_CyPmSleep . . . . . . . . . . . . . . . CODE     CYPM  
_cyread16. . . . . . . . . . . . . . . . CODE     CYMEM  
_cyread16_nodpx. . . . . . . . . . . . . CODE     CYMEM  CLOCK_UART  CYLIB  ISR_IMU  ISR_RS485_RX  ISR_WATCHDOG  PACER_T
                                                  IMER  SPI_IMU_INTCLOCK  WATCHDOG_COUNTER  
_cyread24. . . . . . . . . . . . . . . . CODE     CYMEM  
_cyread24_nodpx. . . . . . . . . . . . . CODE     CYMEM  MY_TIMER  
_cyread32. . . . . . . . . . . . . . . . CODE     CYMEM  
_cyread32_nodpx. . . . . . . . . . . . . CODE     CYMEM  
_cyread8 . . . . . . . . . . . . . . . . CODE     CYMEM  CYFITTER_CFG  CYLIB  CYSPC  
_cyread8_nodpx . . . . . . . . . . . . . CODE     CYMEM  
_CySetFlashEEBuffer. . . . . . . . . . . CODE     CYFLASH  
_CySpcEraseSector. . . . . . . . . . . . CODE     CYSPC  EEPROM  
_CySpcGetTemp. . . . . . . . . . . . . . CODE     CYSPC  CYFLASH  
_CySpcLoadMultiByte. . . . . . . . . . . CODE     CYSPC  EEPROM  
_CySpcLoadRow. . . . . . . . . . . . . . CODE     CYSPC  EEPROM  
_CySpcLoadRowFull. . . . . . . . . . . . CODE     CYSPC  CYFLASH  
_CySpcReadData . . . . . . . . . . . . . CODE     CYSPC  CYFLASH  
_CySpcWriteRow . . . . . . . . . . . . . CODE     CYSPC  CYFLASH  EEPROM  
_CyUsbClk_SetSource. . . . . . . . . . . CODE     CYLIB  
_CyVdLvAnalogEnable. . . . . . . . . . . CODE     CYLIB  CYPM  
_CyVdLvDigitEnable . . . . . . . . . . . CODE     CYLIB  CYPM  
_CyVdStickyStatus. . . . . . . . . . . . CODE     CYLIB  
_CyWdtStart. . . . . . . . . . . . . . . CODE     CYLIB  
_cywrite16 . . . . . . . . . . . . . . . CODE     CYMEM  CYFITTER_CFG  
_cywrite16_nodpx . . . . . . . . . . . . CODE     CYMEM  CLOCK_UART  CYFITTER_CFG  CYLIB  ISR_IMU  ISR_RS485_RX  ISR_WAT
                                                  CHDOG  PACER_TIMER  SPI_IMU_INTCLOCK  WATCHDOG_COUNTER  
_cywrite24 . . . . . . . . . . . . . . . CODE     CYMEM  
_cywrite24_nodpx . . . . . . . . . . . . CODE     CYMEM  MY_TIMER  
_cywrite32 . . . . . . . . . . . . . . . CODE     CYMEM  
_cywrite32_nodpx . . . . . . . . . . . . CODE     CYMEM  
_cywrite8. . . . . . . . . . . . . . . . CODE     CYMEM  CYFITTER_CFG  
_cywrite8_nodpx. . . . . . . . . . . . . CODE     CYMEM  
_CyWriteRowData. . . . . . . . . . . . . CODE     CYFLASH  BOOTLOADABLE  
_CyWriteRowFull. . . . . . . . . . . . . CODE     CYFLASH  
_CyXTAL_32KHZ_SetPowerMode . . . . . . . CODE     CYLIB  
_CyXTAL_SetFbVoltage . . . . . . . . . . CODE     CYLIB  
LX51 LINKER/LOCATER V4.64.0.0                                                         09/27/2016  11:48:46  PAGE 103


_CyXTAL_SetStartup . . . . . . . . . . . CODE     CYLIB  
_CyXTAL_SetWdVoltage . . . . . . . . . . CODE     CYLIB  
_CyXTAL_Start. . . . . . . . . . . . . . CODE     CYLIB  CYPM  
_dma_wait. . . . . . . . . . . . . . . . CODE     ?C_STARTUP  
_EEPROM_ByteWritePos . . . . . . . . . . CODE     EEPROM  
_EEPROM_EraseSector. . . . . . . . . . . CODE     EEPROM  
_EEPROM_ReadByte . . . . . . . . . . . . CODE     EEPROM  
_EEPROM_StartErase . . . . . . . . . . . CODE     EEPROM  
_EEPROM_StartWrite . . . . . . . . . . . CODE     EEPROM  
_EEPROM_Write. . . . . . . . . . . . . . CODE     EEPROM  COMMAND_PROCESSING  
_EEPROM_WriteByte. . . . . . . . . . . . CODE     EEPROM  
_FF_STATUS_WriteMask . . . . . . . . . . CODE     FF_STATUS  
_filter_ch1. . . . . . . . . . . . . . . CODE     UTILS  
_filter_ch2. . . . . . . . . . . . . . . CODE     UTILS  
_filter_i1 . . . . . . . . . . . . . . . CODE     UTILS  
_filter_v. . . . . . . . . . . . . . . . CODE     UTILS  
_FTDI_ENABLE_REG_Write . . . . . . . . . CODE     FTDI_ENABLE_REG  COMMAND_PROCESSING  MAIN  
_get_param_list. . . . . . . . . . . . . CODE     COMMAND_PROCESSING  
_infoGet . . . . . . . . . . . . . . . . CODE     COMMAND_PROCESSING  INTERRUPTIONS  
_infoPrepare . . . . . . . . . . . . . . CODE     COMMAND_PROCESSING  
_isr_imu_SetPriority . . . . . . . . . . CODE     ISR_IMU  
_isr_imu_SetVector . . . . . . . . . . . CODE     ISR_IMU  
_isr_imu_StartEx . . . . . . . . . . . . CODE     ISR_IMU  
_ISR_RS485_RX_SetPriority. . . . . . . . CODE     ISR_RS485_RX  
_ISR_RS485_RX_SetVector. . . . . . . . . CODE     ISR_RS485_RX  
_ISR_RS485_RX_StartEx. . . . . . . . . . CODE     ISR_RS485_RX  MAIN  
_ISR_WATCHDOG_SetPriority. . . . . . . . CODE     ISR_WATCHDOG  
_ISR_WATCHDOG_SetVector. . . . . . . . . CODE     ISR_WATCHDOG  
_ISR_WATCHDOG_StartEx. . . . . . . . . . CODE     ISR_WATCHDOG  MAIN  
_LCRChecksum . . . . . . . . . . . . . . CODE     COMMAND_PROCESSING  ISR_IMU  
_memStore. . . . . . . . . . . . . . . . CODE     COMMAND_PROCESSING  
_my_mod. . . . . . . . . . . . . . . . . CODE     UTILS  
_my_round. . . . . . . . . . . . . . . . CODE     UTILS  
_MY_TIMER_SetInterruptMode . . . . . . . CODE     MY_TIMER  
_MY_TIMER_WriteControlRegister . . . . . CODE     MY_TIMER  
_MY_TIMER_WriteCounter . . . . . . . . . CODE     MY_TIMER  INTERRUPTIONS  
_MY_TIMER_WritePeriod. . . . . . . . . . CODE     MY_TIMER  
_Opto_Pin_SetDriveMode . . . . . . . . . CODE     OPTO_PIN  
_Opto_Pin_Write. . . . . . . . . . . . . CODE     OPTO_PIN  IMU_FUNCTIONS  MAIN  
_PACER_TIMER_SetInterruptMode. . . . . . CODE     PACER_TIMER  
_PACER_TIMER_WriteControlRegister. . . . CODE     PACER_TIMER  
_PACER_TIMER_WriteCounter. . . . . . . . CODE     PACER_TIMER  
_PACER_TIMER_WritePeriod . . . . . . . . CODE     PACER_TIMER  
_PRINTF. . . . . . . . . . . . . . . . . CODE     PRINTF  
_PUTCHAR . . . . . . . . . . . . . . . . CODE     PUTCHAR  PRINTF  
_ReadAcc . . . . . . . . . . . . . . . . CODE     IMU_FUNCTIONS  
_ReadControlRegister . . . . . . . . . . CODE     IMU_FUNCTIONS  
_ReadGyro. . . . . . . . . . . . . . . . CODE     IMU_FUNCTIONS  
_ReadIMU . . . . . . . . . . . . . . . . CODE     IMU_FUNCTIONS  ISR_IMU  
_ReadMag . . . . . . . . . . . . . . . . CODE     IMU_FUNCTIONS  
_ReadMagCal. . . . . . . . . . . . . . . CODE     IMU_FUNCTIONS  
_RESET_FF_Write. . . . . . . . . . . . . CODE     RESET_FF  MAIN  
_RS485_CTS_Write . . . . . . . . . . . . CODE     RS485_CTS  COMMAND_PROCESSING  INTERRUPTIONS  MAIN  
_sendAcknowledgment. . . . . . . . . . . CODE     COMMAND_PROCESSING  
_SetAnalogRoutingPumps . . . . . . . . . CODE     CYFITTER_CFG  
_SPI_IMU_IntClock_ClearModeRegister. . . CODE     SPI_IMU_INTCLOCK  
_SPI_IMU_IntClock_SetDividerRegister . . CODE     SPI_IMU_INTCLOCK  
_SPI_IMU_IntClock_SetModeRegister. . . . CODE     SPI_IMU_INTCLOCK  
_SPI_IMU_IntClock_SetSourceRegister. . . CODE     SPI_IMU_INTCLOCK  
_SPI_IMU_IntClock_StandbyPower . . . . . CODE     SPI_IMU_INTCLOCK  
_SPI_IMU_PutArray. . . . . . . . . . . . CODE     SPI_IMU  
_SPI_IMU_SetInterruptMode. . . . . . . . CODE     SPI_IMU  
_SPI_IMU_SetRxInterruptMode. . . . . . . CODE     SPI_IMU  
_SPI_IMU_SetTxInterruptMode. . . . . . . CODE     SPI_IMU  
_SPI_IMU_WriteTxData . . . . . . . . . . CODE     SPI_IMU  IMU_FUNCTIONS  
LX51 LINKER/LOCATER V4.64.0.0                                                         09/27/2016  11:48:46  PAGE 104


_SPRINTF . . . . . . . . . . . . . . . . CODE     PRINTF  COMMAND_PROCESSING  
_strcat. . . . . . . . . . . . . . . . . CODE     STRCAT  COMMAND_PROCESSING  
_STRLEN. . . . . . . . . . . . . . . . . CODE     STRLEN  COMMAND_PROCESSING  
_UART_RS485_PutArray . . . . . . . . . . CODE     UART_RS485  
_UART_RS485_PutChar. . . . . . . . . . . CODE     UART_RS485  COMMAND_PROCESSING  
_UART_RS485_PutCRLF. . . . . . . . . . . CODE     UART_RS485  
_UART_RS485_PutString. . . . . . . . . . CODE     UART_RS485  COMMAND_PROCESSING  
_UART_RS485_SendBreak. . . . . . . . . . CODE     UART_RS485  
_UART_RS485_SetRxAddress1. . . . . . . . CODE     UART_RS485  
_UART_RS485_SetRxAddress2. . . . . . . . CODE     UART_RS485  
_UART_RS485_SetRxAddressMode . . . . . . CODE     UART_RS485  
_UART_RS485_SetRxInterruptMode . . . . . CODE     UART_RS485  
_UART_RS485_SetTxAddressMode . . . . . . CODE     UART_RS485  
_UART_RS485_SetTxInterruptMode . . . . . CODE     UART_RS485  
_UART_RS485_WriteControlRegister . . . . CODE     UART_RS485  
_UART_RS485_WriteTxData. . . . . . . . . CODE     UART_RS485  
_WATCHDOG_COUNTER_SetInterruptMode . . . CODE     WATCHDOG_COUNTER  
_WATCHDOG_COUNTER_WriteControlRegister . CODE     WATCHDOG_COUNTER  
_WATCHDOG_COUNTER_WriteCounter . . . . . CODE     WATCHDOG_COUNTER  
_WATCHDOG_COUNTER_WritePeriod. . . . . . CODE     WATCHDOG_COUNTER  COMMAND_PROCESSING  
_WATCHDOG_ENABLER_Write. . . . . . . . . CODE     WATCHDOG_ENABLER  COMMAND_PROCESSING  
_WATCHDOG_REFRESH_Write. . . . . . . . . CODE     WATCHDOG_REFRESH  MAIN  
_WriteControlRegister. . . . . . . . . . CODE     IMU_FUNCTIONS  
AC . . . . . . . . . . . . . . . . . . . DATA     COMMAND_PROCESSING  
ACC. . . . . . . . . . . . . . . . . . . DATA     COMMAND_PROCESSING  
Accel. . . . . . . . . . . . . . . . . . XDATA    GLOBALS  IMU_FUNCTIONS  ISR_IMU  
ADC_buf. . . . . . . . . . . . . . . . . XDATA    GLOBALS  
B. . . . . . . . . . . . . . . . . . . . DATA     COMMAND_PROCESSING  
Bootloadable_Load. . . . . . . . . . . . CODE     BOOTLOADABLE  COMMAND_PROCESSING  
c_mem. . . . . . . . . . . . . . . . . . XDATA    GLOBALS  COMMAND_PROCESSING  IMU_FUNCTIONS  INTERRUPTIONS  
calibration. . . . . . . . . . . . . . . CODE     UTILS  
Chip_Select_A_Read . . . . . . . . . . . CODE     CHIP_SELECT_A  
Chip_Select_B_Read . . . . . . . . . . . CODE     CHIP_SELECT_B  
CLOCK_UART_GetDividerRegister. . . . . . CODE     CLOCK_UART  
CLOCK_UART_GetModeRegister . . . . . . . CODE     CLOCK_UART  
CLOCK_UART_GetSourceRegister . . . . . . CODE     CLOCK_UART  
CLOCK_UART_Start . . . . . . . . . . . . CODE     CLOCK_UART  
CLOCK_UART_Stop. . . . . . . . . . . . . CODE     CLOCK_UART  
CLOCK_UART_StopBlock . . . . . . . . . . CODE     CLOCK_UART  
cmd_activate . . . . . . . . . . . . . . CODE     COMMAND_PROCESSING  
cmd_get_activate . . . . . . . . . . . . CODE     COMMAND_PROCESSING  
cmd_get_curr_and_meas. . . . . . . . . . CODE     COMMAND_PROCESSING  
cmd_get_currents . . . . . . . . . . . . CODE     COMMAND_PROCESSING  
cmd_get_emg. . . . . . . . . . . . . . . CODE     COMMAND_PROCESSING  
cmd_get_imu_readings . . . . . . . . . . CODE     COMMAND_PROCESSING  
cmd_get_imus_mode. . . . . . . . . . . . CODE     COMMAND_PROCESSING  
cmd_get_imus_sfs . . . . . . . . . . . . CODE     COMMAND_PROCESSING  
cmd_get_inputs . . . . . . . . . . . . . CODE     COMMAND_PROCESSING  
cmd_get_mag_param. . . . . . . . . . . . CODE     COMMAND_PROCESSING  
cmd_get_measurements . . . . . . . . . . CODE     COMMAND_PROCESSING  
cmd_get_n_imu. . . . . . . . . . . . . . CODE     COMMAND_PROCESSING  
cmd_ping . . . . . . . . . . . . . . . . CODE     COMMAND_PROCESSING  
cmd_set_baudrate . . . . . . . . . . . . CODE     COMMAND_PROCESSING  
cmd_set_imu_mode . . . . . . . . . . . . CODE     COMMAND_PROCESSING  
cmd_set_inputs . . . . . . . . . . . . . CODE     COMMAND_PROCESSING  
cmd_set_watchdog . . . . . . . . . . . . CODE     COMMAND_PROCESSING  
cmd_store_params . . . . . . . . . . . . CODE     COMMAND_PROCESSING  
commProcess. . . . . . . . . . . . . . . CODE     COMMAND_PROCESSING  INTERRUPTIONS  
CY . . . . . . . . . . . . . . . . . . . DATA     COMMAND_PROCESSING  
cydelay_32k_ms . . . . . . . . . . . . . XDATA    CYLIB  
cydelay_freq_hz. . . . . . . . . . . . . XDATA    CYLIB  
cydelay_freq_khz . . . . . . . . . . . . XDATA    CYLIB  
cydelay_freq_mhz . . . . . . . . . . . . XDATA    CYLIB  CYBOOTASMKEIL  
CyDisableInts. . . . . . . . . . . . . . CODE     CYLIB  
CyEEPROM_ReadRelease . . . . . . . . . . CODE     CYFLASH  EEPROM  
LX51 LINKER/LOCATER V4.64.0.0                                                         09/27/2016  11:48:46  PAGE 105


CyEEPROM_ReadReserve . . . . . . . . . . CODE     CYFLASH  EEPROM  
CyEEPROM_Start . . . . . . . . . . . . . CODE     CYFLASH  EEPROM  
CyEEPROM_Stop. . . . . . . . . . . . . . CODE     CYFLASH  EEPROM  
CyEnterCriticalSection . . . . . . . . . CODE     CYBOOTASMKEIL  CYFLASH  CYLIB  CYPM  CYSPC  EEPROM  FF_STATUS  MY_TIME
                                                  R  SPI_IMU  UART_RS485  
cyfitter_cfg . . . . . . . . . . . . . . CODE     CYFITTER_CFG  ?C_STARTUP  
CyFlash_Start. . . . . . . . . . . . . . CODE     CYFLASH  
CyFlash_Stop . . . . . . . . . . . . . . CODE     CYFLASH  
CyILO_Disable33K . . . . . . . . . . . . CODE     CYLIB  
CyILO_Enable33K. . . . . . . . . . . . . CODE     CYLIB  
CyILO_Start100K. . . . . . . . . . . . . CODE     CYLIB  CYPM  
CyILO_Start1K. . . . . . . . . . . . . . CODE     CYLIB  CYPM  
CyILO_Stop100K . . . . . . . . . . . . . CODE     CYLIB  
CyILO_Stop1K . . . . . . . . . . . . . . CODE     CYLIB  
CyIMO_DisableDoubler . . . . . . . . . . CODE     CYLIB  CYPM  
CyIMO_EnableDoubler. . . . . . . . . . . CODE     CYLIB  CYPM  
CyIMO_Stop . . . . . . . . . . . . . . . CODE     CYLIB  CYPM  
CyPLL_OUT_Stop . . . . . . . . . . . . . CODE     CYLIB  CYPM  
CyPmHibernate. . . . . . . . . . . . . . CODE     CYPM  
CyPmOppsSet. . . . . . . . . . . . . . . CODE     CYPM  
CyPmRestoreClocks. . . . . . . . . . . . CODE     CYPM  
CyPmSaveClocks . . . . . . . . . . . . . CODE     CYPM  
CyResetStatus. . . . . . . . . . . . . . XDATA    CYLIB  ?C_STARTUP  
CySetTemp. . . . . . . . . . . . . . . . CODE     CYFLASH  COMMAND_PROCESSING  EEPROM  
CySoftwareReset. . . . . . . . . . . . . CODE     CYLIB  BOOTLOADABLE  
CySpcGetAlgorithm. . . . . . . . . . . . CODE     CYSPC  CYFLASH  
CySpcLock. . . . . . . . . . . . . . . . CODE     CYSPC  CYFLASH  EEPROM  
CySpcStart . . . . . . . . . . . . . . . CODE     CYSPC  CYFLASH  EEPROM  
CySpcStop. . . . . . . . . . . . . . . . CODE     CYSPC  
CySpcUnlock. . . . . . . . . . . . . . . CODE     CYSPC  CYFLASH  EEPROM  
CyVdHvAnalogDisable. . . . . . . . . . . CODE     CYLIB  CYPM  
CyVdHvAnalogEnable . . . . . . . . . . . CODE     CYLIB  CYPM  
CyVdLvAnalogDisable. . . . . . . . . . . CODE     CYLIB  CYPM  
CyVdLvDigitDisable . . . . . . . . . . . CODE     CYLIB  CYPM  
CyVdRealTimeStatus . . . . . . . . . . . CODE     CYLIB  
CyWdtClear . . . . . . . . . . . . . . . CODE     CYLIB  
CyXTAL_32KHZ_ReadStatus. . . . . . . . . CODE     CYLIB  
CyXTAL_32KHZ_Start . . . . . . . . . . . CODE     CYLIB  CYPM  
CyXTAL_32KHZ_Stop. . . . . . . . . . . . CODE     CYLIB  
CyXTAL_DisableErrStatus. . . . . . . . . CODE     CYLIB  
CyXTAL_DisableFaultRecovery. . . . . . . CODE     CYLIB  
CyXTAL_EnableErrStatus . . . . . . . . . CODE     CYLIB  
CyXTAL_EnableFaultRecovery . . . . . . . CODE     CYLIB  
CyXTAL_ReadStatus. . . . . . . . . . . . CODE     CYLIB  
CyXTAL_Stop. . . . . . . . . . . . . . . CODE     CYLIB  CYPM  
dev_pwm_limit. . . . . . . . . . . . . . XDATA    GLOBALS  MAIN  
dev_tension. . . . . . . . . . . . . . . XDATA    GLOBALS  
dieTemperature . . . . . . . . . . . . . XDATA    CYFLASH  EEPROM  
DPH. . . . . . . . . . . . . . . . . . . DATA     COMMAND_PROCESSING  
DPH1 . . . . . . . . . . . . . . . . . . DATA     COMMAND_PROCESSING  
DPL. . . . . . . . . . . . . . . . . . . DATA     COMMAND_PROCESSING  
DPL1 . . . . . . . . . . . . . . . . . . DATA     COMMAND_PROCESSING  
DPS. . . . . . . . . . . . . . . . . . . DATA     COMMAND_PROCESSING  
DPX. . . . . . . . . . . . . . . . . . . DATA     COMMAND_PROCESSING  
DPX1 . . . . . . . . . . . . . . . . . . DATA     COMMAND_PROCESSING  
EA . . . . . . . . . . . . . . . . . . . DATA     COMMAND_PROCESSING  
EEPROM_ADDR. . . . . . . . . . . . . . . XDATA    COMMAND_PROCESSING  
EEPROM_Enable. . . . . . . . . . . . . . CODE     EEPROM  
EEPROM_Query . . . . . . . . . . . . . . CODE     EEPROM  
EEPROM_Start . . . . . . . . . . . . . . CODE     EEPROM  MAIN  
EEPROM_Stop. . . . . . . . . . . . . . . CODE     EEPROM  
EEPROM_UpdateTemperature . . . . . . . . CODE     EEPROM  
F0 . . . . . . . . . . . . . . . . . . . DATA     COMMAND_PROCESSING  
F1 . . . . . . . . . . . . . . . . . . . DATA     COMMAND_PROCESSING  
FF_STATUS_InterruptDisable . . . . . . . CODE     FF_STATUS  
LX51 LINKER/LOCATER V4.64.0.0                                                         09/27/2016  11:48:46  PAGE 106


FF_STATUS_InterruptEnable. . . . . . . . CODE     FF_STATUS  
FF_STATUS_Read . . . . . . . . . . . . . CODE     FF_STATUS  MAIN  
FF_STATUS_ReadMask . . . . . . . . . . . CODE     FF_STATUS  
frsAccReg. . . . . . . . . . . . . . . . XDATA    GLOBALS  IMU_FUNCTIONS  
frsGyroReg . . . . . . . . . . . . . . . XDATA    GLOBALS  IMU_FUNCTIONS  
FTDI_ENABLE_REG_Read . . . . . . . . . . CODE     FTDI_ENABLE_REG  
function_scheduler . . . . . . . . . . . CODE     INTERRUPTIONS  MAIN  
g_imu. . . . . . . . . . . . . . . . . . XDATA    GLOBALS  COMMAND_PROCESSING  IMU_FUNCTIONS  INTERRUPTIONS  ISR_IMU  
g_imuNew . . . . . . . . . . . . . . . . XDATA    GLOBALS  INTERRUPTIONS  
g_mem. . . . . . . . . . . . . . . . . . XDATA    GLOBALS  COMMAND_PROCESSING  
g_rx . . . . . . . . . . . . . . . . . . XDATA    GLOBALS  COMMAND_PROCESSING  INTERRUPTIONS  MAIN  
Gyro . . . . . . . . . . . . . . . . . . XDATA    GLOBALS  IMU_FUNCTIONS  ISR_IMU  
IE . . . . . . . . . . . . . . . . . . . DATA     COMMAND_PROCESSING  
IMU_conf . . . . . . . . . . . . . . . . XDATA    GLOBALS  COMMAND_PROCESSING  IMU_FUNCTIONS  ISR_IMU  
IMU_connected. . . . . . . . . . . . . . XDATA    GLOBALS  COMMAND_PROCESSING  IMU_FUNCTIONS  ISR_IMU  
imu_send_flag. . . . . . . . . . . . . . XDATA    GLOBALS  COMMAND_PROCESSING  ISR_IMU  MAIN  
imus_data_size . . . . . . . . . . . . . XDATA    GLOBALS  COMMAND_PROCESSING  IMU_FUNCTIONS  ISR_IMU  
ImusReset. . . . . . . . . . . . . . . . CODE     IMU_FUNCTIONS  COMMAND_PROCESSING  
infoSend . . . . . . . . . . . . . . . . CODE     COMMAND_PROCESSING  
InitIMU. . . . . . . . . . . . . . . . . CODE     IMU_FUNCTIONS  
InitIMUgeneral . . . . . . . . . . . . . CODE     IMU_FUNCTIONS  MAIN  
InitIMUMagCal. . . . . . . . . . . . . . CODE     IMU_FUNCTIONS  
interrupt_flag . . . . . . . . . . . . . BIT      GLOBALS  INTERRUPTIONS  MAIN  
interrupt_manager. . . . . . . . . . . . CODE     INTERRUPTIONS  MAIN  
isr_imu_ClearPending . . . . . . . . . . CODE     ISR_IMU  
isr_imu_Disable. . . . . . . . . . . . . CODE     ISR_IMU  IMU_FUNCTIONS  
isr_imu_Enable . . . . . . . . . . . . . CODE     ISR_IMU  IMU_FUNCTIONS  MAIN  
isr_imu_GetPriority. . . . . . . . . . . CODE     ISR_IMU  
isr_imu_GetState . . . . . . . . . . . . CODE     ISR_IMU  
isr_imu_GetVector. . . . . . . . . . . . CODE     ISR_IMU  
isr_imu_Interrupt. . . . . . . . . . . . CODE     ISR_IMU  
isr_imu_SetPending . . . . . . . . . . . CODE     ISR_IMU  
isr_imu_Start. . . . . . . . . . . . . . CODE     ISR_IMU  IMU_FUNCTIONS  MAIN  
isr_imu_Stop . . . . . . . . . . . . . . CODE     ISR_IMU  IMU_FUNCTIONS  
ISR_RS485_RX_ClearPending. . . . . . . . CODE     ISR_RS485_RX  
ISR_RS485_RX_Disable . . . . . . . . . . CODE     ISR_RS485_RX  COMMAND_PROCESSING  
ISR_RS485_RX_Enable. . . . . . . . . . . CODE     ISR_RS485_RX  COMMAND_PROCESSING  
ISR_RS485_RX_ExInterrupt . . . . . . . . CODE     INTERRUPTIONS  MAIN  
ISR_RS485_RX_GetPriority . . . . . . . . CODE     ISR_RS485_RX  
ISR_RS485_RX_GetState. . . . . . . . . . CODE     ISR_RS485_RX  
ISR_RS485_RX_GetVector . . . . . . . . . CODE     ISR_RS485_RX  
ISR_RS485_RX_Interrupt . . . . . . . . . CODE     ISR_RS485_RX  
ISR_RS485_RX_SetPending. . . . . . . . . CODE     ISR_RS485_RX  
ISR_RS485_RX_Start . . . . . . . . . . . CODE     ISR_RS485_RX  
ISR_RS485_RX_Stop. . . . . . . . . . . . CODE     ISR_RS485_RX  
ISR_WATCHDOG_ClearPending. . . . . . . . CODE     ISR_WATCHDOG  
ISR_WATCHDOG_Disable . . . . . . . . . . CODE     ISR_WATCHDOG  
ISR_WATCHDOG_Enable. . . . . . . . . . . CODE     ISR_WATCHDOG  
ISR_WATCHDOG_GetPriority . . . . . . . . CODE     ISR_WATCHDOG  
ISR_WATCHDOG_GetState. . . . . . . . . . CODE     ISR_WATCHDOG  
ISR_WATCHDOG_GetVector . . . . . . . . . CODE     ISR_WATCHDOG  
ISR_WATCHDOG_Handler . . . . . . . . . . CODE     INTERRUPTIONS  MAIN  
ISR_WATCHDOG_Interrupt . . . . . . . . . CODE     ISR_WATCHDOG  
ISR_WATCHDOG_SetPending. . . . . . . . . CODE     ISR_WATCHDOG  
ISR_WATCHDOG_Start . . . . . . . . . . . CODE     ISR_WATCHDOG  
ISR_WATCHDOG_Stop. . . . . . . . . . . . CODE     ISR_WATCHDOG  
Mag. . . . . . . . . . . . . . . . . . . XDATA    GLOBALS  IMU_FUNCTIONS  ISR_IMU  
MagCal . . . . . . . . . . . . . . . . . XDATA    GLOBALS  COMMAND_PROCESSING  IMU_FUNCTIONS  
main . . . . . . . . . . . . . . . . . . CODE     MAIN  ?C_INIT  
memInit. . . . . . . . . . . . . . . . . CODE     COMMAND_PROCESSING  
memRecall. . . . . . . . . . . . . . . . CODE     COMMAND_PROCESSING  MAIN  
memRestore . . . . . . . . . . . . . . . CODE     COMMAND_PROCESSING  
MXAX . . . . . . . . . . . . . . . . . . DATA     COMMAND_PROCESSING  
MY_TIMER_ClearFIFO . . . . . . . . . . . CODE     MY_TIMER  
MY_TIMER_Enable. . . . . . . . . . . . . CODE     MY_TIMER  
LX51 LINKER/LOCATER V4.64.0.0                                                         09/27/2016  11:48:46  PAGE 107


MY_TIMER_Init. . . . . . . . . . . . . . CODE     MY_TIMER  
MY_TIMER_initVar . . . . . . . . . . . . XDATA    MY_TIMER  
MY_TIMER_ReadCapture . . . . . . . . . . CODE     MY_TIMER  
MY_TIMER_ReadControlRegister . . . . . . CODE     MY_TIMER  
MY_TIMER_ReadCounter . . . . . . . . . . CODE     MY_TIMER  INTERRUPTIONS  
MY_TIMER_ReadPeriod. . . . . . . . . . . CODE     MY_TIMER  
MY_TIMER_ReadStatusRegister. . . . . . . CODE     MY_TIMER  
MY_TIMER_SoftwareCapture . . . . . . . . CODE     MY_TIMER  
MY_TIMER_Start . . . . . . . . . . . . . CODE     MY_TIMER  MAIN  
MY_TIMER_Stop. . . . . . . . . . . . . . CODE     MY_TIMER  
N_IMU_Connected. . . . . . . . . . . . . XDATA    GLOBALS  COMMAND_PROCESSING  IMU_FUNCTIONS  ISR_IMU  
Opto_Pin_Read. . . . . . . . . . . . . . CODE     OPTO_PIN  
Opto_Pin_ReadDataReg . . . . . . . . . . CODE     OPTO_PIN  
OV . . . . . . . . . . . . . . . . . . . DATA     COMMAND_PROCESSING  
P. . . . . . . . . . . . . . . . . . . . DATA     COMMAND_PROCESSING  
P2AX . . . . . . . . . . . . . . . . . . DATA     COMMAND_PROCESSING  
PACER_TIMER_Enable . . . . . . . . . . . CODE     PACER_TIMER  
PACER_TIMER_Init . . . . . . . . . . . . CODE     PACER_TIMER  
PACER_TIMER_initVar. . . . . . . . . . . XDATA    PACER_TIMER  
PACER_TIMER_ReadCapture. . . . . . . . . CODE     PACER_TIMER  
PACER_TIMER_ReadControlRegister. . . . . CODE     PACER_TIMER  
PACER_TIMER_ReadCounter. . . . . . . . . CODE     PACER_TIMER  
PACER_TIMER_ReadPeriod . . . . . . . . . CODE     PACER_TIMER  
PACER_TIMER_ReadStatusRegister . . . . . CODE     PACER_TIMER  
PACER_TIMER_SoftwareCapture. . . . . . . CODE     PACER_TIMER  
PACER_TIMER_Start. . . . . . . . . . . . CODE     PACER_TIMER  MAIN  
PACER_TIMER_Stop . . . . . . . . . . . . CODE     PACER_TIMER  
PSW. . . . . . . . . . . . . . . . . . . DATA     COMMAND_PROCESSING  
pwm_sign . . . . . . . . . . . . . . . . XDATA    GLOBALS  
rateAcc. . . . . . . . . . . . . . . . . XDATA    GLOBALS  COMMAND_PROCESSING  IMU_FUNCTIONS  
rateGyro . . . . . . . . . . . . . . . . XDATA    GLOBALS  COMMAND_PROCESSING  IMU_FUNCTIONS  
RESET_FF_Read. . . . . . . . . . . . . . CODE     RESET_FF  
reset_last_value_flag. . . . . . . . . . BIT      GLOBALS  MAIN  
RS0. . . . . . . . . . . . . . . . . . . DATA     COMMAND_PROCESSING  
RS1. . . . . . . . . . . . . . . . . . . DATA     COMMAND_PROCESSING  
RS485_CTS_Read . . . . . . . . . . . . . CODE     RS485_CTS  
setZeros . . . . . . . . . . . . . . . . CODE     COMMAND_PROCESSING  
SFRPRT0DR. . . . . . . . . . . . . . . . DATA     COMMAND_PROCESSING  
SFRPRT0PS. . . . . . . . . . . . . . . . DATA     COMMAND_PROCESSING  
SFRPRT0SEL . . . . . . . . . . . . . . . DATA     COMMAND_PROCESSING  
SFRPRT12DR . . . . . . . . . . . . . . . DATA     COMMAND_PROCESSING  
SFRPRT12PS . . . . . . . . . . . . . . . DATA     COMMAND_PROCESSING  
SFRPRT12SEL. . . . . . . . . . . . . . . DATA     COMMAND_PROCESSING  
SFRPRT15DR . . . . . . . . . . . . . . . DATA     COMMAND_PROCESSING  
SFRPRT15PS . . . . . . . . . . . . . . . DATA     COMMAND_PROCESSING  
SFRPRT15SEL. . . . . . . . . . . . . . . DATA     COMMAND_PROCESSING  
SFRPRT1DR. . . . . . . . . . . . . . . . DATA     COMMAND_PROCESSING  
SFRPRT1PS. . . . . . . . . . . . . . . . DATA     COMMAND_PROCESSING  
SFRPRT1SEL . . . . . . . . . . . . . . . DATA     COMMAND_PROCESSING  
SFRPRT2DR. . . . . . . . . . . . . . . . DATA     COMMAND_PROCESSING  
SFRPRT2PS. . . . . . . . . . . . . . . . DATA     COMMAND_PROCESSING  
SFRPRT2SEL . . . . . . . . . . . . . . . DATA     COMMAND_PROCESSING  
SFRPRT3DR. . . . . . . . . . . . . . . . DATA     COMMAND_PROCESSING  
SFRPRT3PS. . . . . . . . . . . . . . . . DATA     COMMAND_PROCESSING  
SFRPRT3SEL . . . . . . . . . . . . . . . DATA     COMMAND_PROCESSING  
SFRPRT4DR. . . . . . . . . . . . . . . . DATA     COMMAND_PROCESSING  
SFRPRT4PS. . . . . . . . . . . . . . . . DATA     COMMAND_PROCESSING  
SFRPRT4SEL . . . . . . . . . . . . . . . DATA     COMMAND_PROCESSING  
SFRPRT5DR. . . . . . . . . . . . . . . . DATA     COMMAND_PROCESSING  
SFRPRT5PS. . . . . . . . . . . . . . . . DATA     COMMAND_PROCESSING  
SFRPRT5SEL . . . . . . . . . . . . . . . DATA     COMMAND_PROCESSING  
SFRPRT6DR. . . . . . . . . . . . . . . . DATA     COMMAND_PROCESSING  
SFRPRT6PS. . . . . . . . . . . . . . . . DATA     COMMAND_PROCESSING  
SFRPRT6SEL . . . . . . . . . . . . . . . DATA     COMMAND_PROCESSING  
single_imu_size. . . . . . . . . . . . . XDATA    GLOBALS  COMMAND_PROCESSING  IMU_FUNCTIONS  ISR_IMU  
LX51 LINKER/LOCATER V4.64.0.0                                                         09/27/2016  11:48:46  PAGE 108


SP . . . . . . . . . . . . . . . . . . . DATA     COMMAND_PROCESSING  
SpcLockState . . . . . . . . . . . . . . XDATA    CYSPC  
SPI_IMU_ClearFIFO. . . . . . . . . . . . CODE     SPI_IMU  IMU_FUNCTIONS  MAIN  
SPI_IMU_ClearRxBuffer. . . . . . . . . . CODE     SPI_IMU  IMU_FUNCTIONS  MAIN  
SPI_IMU_ClearTxBuffer. . . . . . . . . . CODE     SPI_IMU  IMU_FUNCTIONS  MAIN  
SPI_IMU_DisableInt . . . . . . . . . . . CODE     SPI_IMU  
SPI_IMU_DisableRxInt . . . . . . . . . . CODE     SPI_IMU  
SPI_IMU_DisableTxInt . . . . . . . . . . CODE     SPI_IMU  
SPI_IMU_Enable . . . . . . . . . . . . . CODE     SPI_IMU  MAIN  
SPI_IMU_EnableInt. . . . . . . . . . . . CODE     SPI_IMU  
SPI_IMU_EnableRxInt. . . . . . . . . . . CODE     SPI_IMU  
SPI_IMU_EnableTxInt. . . . . . . . . . . CODE     SPI_IMU  
SPI_IMU_GetRxBufferSize. . . . . . . . . CODE     SPI_IMU  
SPI_IMU_GetTxBufferSize. . . . . . . . . CODE     SPI_IMU  
SPI_IMU_Init . . . . . . . . . . . . . . CODE     SPI_IMU  MAIN  
SPI_IMU_initVar. . . . . . . . . . . . . XDATA    SPI_IMU  
SPI_IMU_IntClock_GetDividerRegister. . . CODE     SPI_IMU_INTCLOCK  
SPI_IMU_IntClock_GetModeRegister . . . . CODE     SPI_IMU_INTCLOCK  
SPI_IMU_IntClock_GetSourceRegister . . . CODE     SPI_IMU_INTCLOCK  
SPI_IMU_IntClock_Start . . . . . . . . . CODE     SPI_IMU_INTCLOCK  SPI_IMU  
SPI_IMU_IntClock_Stop. . . . . . . . . . CODE     SPI_IMU_INTCLOCK  SPI_IMU  
SPI_IMU_IntClock_StopBlock . . . . . . . CODE     SPI_IMU_INTCLOCK  
SPI_IMU_ReadRxData . . . . . . . . . . . CODE     SPI_IMU  IMU_FUNCTIONS  
SPI_IMU_ReadRxStatus . . . . . . . . . . CODE     SPI_IMU  
SPI_IMU_ReadStatus . . . . . . . . . . . CODE     SPI_IMU  IMU_FUNCTIONS  
SPI_IMU_ReadTxStatus . . . . . . . . . . CODE     SPI_IMU  
SPI_IMU_Start. . . . . . . . . . . . . . CODE     SPI_IMU  MAIN  
SPI_IMU_Stop . . . . . . . . . . . . . . CODE     SPI_IMU  
SPI_IMU_swStatusRx . . . . . . . . . . . XDATA    SPI_IMU  
SPI_IMU_swStatusTx . . . . . . . . . . . XDATA    SPI_IMU  
STARTUP1 . . . . . . . . . . . . . . . . CODE     ?C_STARTUP  
tau_feedback . . . . . . . . . . . . . . XDATA    GLOBALS  
tension_valid. . . . . . . . . . . . . . BIT      GLOBALS  MAIN  
timer_value. . . . . . . . . . . . . . . XDATA    GLOBALS  INTERRUPTIONS  
timer_value0 . . . . . . . . . . . . . . XDATA    GLOBALS  INTERRUPTIONS  
UART_RS485_ClearRxBuffer . . . . . . . . CODE     UART_RS485  MAIN  
UART_RS485_ClearTxBuffer . . . . . . . . CODE     UART_RS485  COMMAND_PROCESSING  MAIN  
UART_RS485_Enable. . . . . . . . . . . . CODE     UART_RS485  
UART_RS485_errorStatus . . . . . . . . . XDATA    UART_RS485  UART_RS485_INT  
UART_RS485_GetByte . . . . . . . . . . . CODE     UART_RS485  
UART_RS485_GetChar . . . . . . . . . . . CODE     UART_RS485  INTERRUPTIONS  
UART_RS485_GetRxBufferSize . . . . . . . CODE     UART_RS485  INTERRUPTIONS  
UART_RS485_GetTxBufferSize . . . . . . . CODE     UART_RS485  
UART_RS485_Init. . . . . . . . . . . . . CODE     UART_RS485  MAIN  
UART_RS485_initVar . . . . . . . . . . . XDATA    UART_RS485  
UART_RS485_ReadControlRegister . . . . . CODE     UART_RS485  
UART_RS485_ReadRxData. . . . . . . . . . CODE     UART_RS485  
UART_RS485_ReadRxStatus. . . . . . . . . CODE     UART_RS485  MAIN  
UART_RS485_ReadTxStatus. . . . . . . . . CODE     UART_RS485  COMMAND_PROCESSING  
UART_RS485_rxBuffer. . . . . . . . . . . XDATA    UART_RS485  UART_RS485_INT  
UART_RS485_rxBufferLoopDetect. . . . . . XDATA    UART_RS485  UART_RS485_INT  
UART_RS485_rxBufferOverflow. . . . . . . XDATA    UART_RS485  UART_RS485_INT  
UART_RS485_rxBufferRead. . . . . . . . . XDATA    UART_RS485  UART_RS485_INT  
UART_RS485_rxBufferWrite . . . . . . . . XDATA    UART_RS485  UART_RS485_INT  
UART_RS485_RXISR . . . . . . . . . . . . CODE     UART_RS485_INT  UART_RS485  
UART_RS485_Start . . . . . . . . . . . . CODE     UART_RS485  MAIN  
UART_RS485_Stop. . . . . . . . . . . . . CODE     UART_RS485  MAIN  
WATCHDOG_COUNTER_Enable. . . . . . . . . CODE     WATCHDOG_COUNTER  
WATCHDOG_COUNTER_Init. . . . . . . . . . CODE     WATCHDOG_COUNTER  
WATCHDOG_COUNTER_initVar . . . . . . . . XDATA    WATCHDOG_COUNTER  
WATCHDOG_COUNTER_ReadCapture . . . . . . CODE     WATCHDOG_COUNTER  
WATCHDOG_COUNTER_ReadControlRegister . . CODE     WATCHDOG_COUNTER  
WATCHDOG_COUNTER_ReadCounter . . . . . . CODE     WATCHDOG_COUNTER  
WATCHDOG_COUNTER_ReadPeriod. . . . . . . CODE     WATCHDOG_COUNTER  
WATCHDOG_COUNTER_ReadStatusRegister. . . CODE     WATCHDOG_COUNTER  
LX51 LINKER/LOCATER V4.64.0.0                                                         09/27/2016  11:48:46  PAGE 109


WATCHDOG_COUNTER_Start . . . . . . . . . CODE     WATCHDOG_COUNTER  MAIN  
WATCHDOG_COUNTER_Stop. . . . . . . . . . CODE     WATCHDOG_COUNTER  
WATCHDOG_ENABLER_Read. . . . . . . . . . CODE     WATCHDOG_ENABLER  
watchdog_flag. . . . . . . . . . . . . . BIT      GLOBALS  INTERRUPTIONS  MAIN  
WATCHDOG_REFRESH_Read. . . . . . . . . . CODE     WATCHDOG_REFRESH  



*** WARNING L15: MULTIPLE CALL TO FUNCTION
    NAME:    _CHIPSELECTOR/IMU_FUNCTIONS
    CALLER1: ?C_C51STARTUP
    CALLER2: ISR_IMU_INTERRUPT/ISR_IMU

*** WARNING L15: MULTIPLE CALL TO FUNCTION
    NAME:    _LCRCHECKSUM/COMMAND_PROCESSING
    CALLER1: ?C_C51STARTUP
    CALLER2: ISR_IMU_INTERRUPT/ISR_IMU

*** WARNING L15: MULTIPLE CALL TO FUNCTION
    NAME:    _COMMWRITE/COMMAND_PROCESSING
    CALLER1: ?C_C51STARTUP
    CALLER2: ISR_IMU_INTERRUPT/ISR_IMU

Program Size: data=37.6 xdata=4365 const=735 code=21379
LX51 RUN COMPLETE.  3 WARNING(S),  0 ERROR(S)
